
build/kernel.elf:     file format elf64-x86-64


Disassembly of section .text:

ffffffffffe02000 <write_apic32>:
ffffffffffe02000:	55                   	push   %rbp
ffffffffffe02001:	48 89 e5             	mov    %rsp,%rbp
ffffffffffe02004:	48 83 ec 18          	sub    $0x18,%rsp
ffffffffffe02008:	89 7d ec             	mov    %edi,-0x14(%rbp)
ffffffffffe0200b:	89 75 e8             	mov    %esi,-0x18(%rbp)
ffffffffffe0200e:	48 8b 05 b3 58 00 00 	mov    0x58b3(%rip),%rax        # ffffffffffe078c8 <apic_addr>
ffffffffffe02015:	48 89 45 f8          	mov    %rax,-0x8(%rbp)
ffffffffffe02019:	48 8b 55 f8          	mov    -0x8(%rbp),%rdx
ffffffffffe0201d:	8b 45 ec             	mov    -0x14(%rbp),%eax
ffffffffffe02020:	48 98                	cltq   
ffffffffffe02022:	48 01 c2             	add    %rax,%rdx
ffffffffffe02025:	8b 45 e8             	mov    -0x18(%rbp),%eax
ffffffffffe02028:	89 02                	mov    %eax,(%rdx)
ffffffffffe0202a:	90                   	nop
ffffffffffe0202b:	c9                   	leaveq 
ffffffffffe0202c:	c3                   	retq   

ffffffffffe0202d <read_apic32>:
ffffffffffe0202d:	55                   	push   %rbp
ffffffffffe0202e:	48 89 e5             	mov    %rsp,%rbp
ffffffffffe02031:	48 83 ec 18          	sub    $0x18,%rsp
ffffffffffe02035:	89 7d ec             	mov    %edi,-0x14(%rbp)
ffffffffffe02038:	48 8b 05 89 58 00 00 	mov    0x5889(%rip),%rax        # ffffffffffe078c8 <apic_addr>
ffffffffffe0203f:	48 89 45 f8          	mov    %rax,-0x8(%rbp)
ffffffffffe02043:	48 8b 55 f8          	mov    -0x8(%rbp),%rdx
ffffffffffe02047:	8b 45 ec             	mov    -0x14(%rbp),%eax
ffffffffffe0204a:	48 98                	cltq   
ffffffffffe0204c:	48 01 d0             	add    %rdx,%rax
ffffffffffe0204f:	8b 00                	mov    (%rax),%eax
ffffffffffe02051:	c9                   	leaveq 
ffffffffffe02052:	c3                   	retq   

ffffffffffe02053 <apic_end_of_interrupt>:
ffffffffffe02053:	55                   	push   %rbp
ffffffffffe02054:	48 89 e5             	mov    %rsp,%rbp
ffffffffffe02057:	be 01 00 00 00       	mov    $0x1,%esi
ffffffffffe0205c:	bf b0 00 00 00       	mov    $0xb0,%edi
ffffffffffe02061:	e8 9a ff ff ff       	callq  ffffffffffe02000 <write_apic32>
ffffffffffe02066:	90                   	nop
ffffffffffe02067:	5d                   	pop    %rbp
ffffffffffe02068:	c3                   	retq   

ffffffffffe02069 <init_apic>:
ffffffffffe02069:	55                   	push   %rbp
ffffffffffe0206a:	48 89 e5             	mov    %rsp,%rbp
ffffffffffe0206d:	48 83 ec 50          	sub    $0x50,%rsp
ffffffffffe02071:	48 c7 45 b8 1b 00 00 	movq   $0x1b,-0x48(%rbp)
ffffffffffe02078:	00 
ffffffffffe02079:	48 8b 45 b8          	mov    -0x48(%rbp),%rax
ffffffffffe0207d:	48 89 c1             	mov    %rax,%rcx
ffffffffffe02080:	0f 32                	rdmsr  
ffffffffffe02082:	89 45 b4             	mov    %eax,-0x4c(%rbp)
ffffffffffe02085:	89 55 b0             	mov    %edx,-0x50(%rbp)
ffffffffffe02088:	8b 45 b0             	mov    -0x50(%rbp),%eax
ffffffffffe0208b:	48 c1 e0 20          	shl    $0x20,%rax
ffffffffffe0208f:	48 89 c2             	mov    %rax,%rdx
ffffffffffe02092:	8b 45 b4             	mov    -0x4c(%rbp),%eax
ffffffffffe02095:	48 09 d0             	or     %rdx,%rax
ffffffffffe02098:	48 89 45 f8          	mov    %rax,-0x8(%rbp)
ffffffffffe0209c:	48 8b 45 f8          	mov    -0x8(%rbp),%rax
ffffffffffe020a0:	48 89 45 d8          	mov    %rax,-0x28(%rbp)
ffffffffffe020a4:	48 c7 45 d0 24 00 00 	movq   $0x24,-0x30(%rbp)
ffffffffffe020ab:	00 
ffffffffffe020ac:	48 c7 45 c8 0c 00 00 	movq   $0xc,-0x38(%rbp)
ffffffffffe020b3:	00 
ffffffffffe020b4:	48 8b 45 d0          	mov    -0x30(%rbp),%rax
ffffffffffe020b8:	89 c2                	mov    %eax,%edx
ffffffffffe020ba:	48 8b 45 c8          	mov    -0x38(%rbp),%rax
ffffffffffe020be:	89 c1                	mov    %eax,%ecx
ffffffffffe020c0:	89 d0                	mov    %edx,%eax
ffffffffffe020c2:	29 c8                	sub    %ecx,%eax
ffffffffffe020c4:	83 c0 01             	add    $0x1,%eax
ffffffffffe020c7:	ba 01 00 00 00       	mov    $0x1,%edx
ffffffffffe020cc:	89 c1                	mov    %eax,%ecx
ffffffffffe020ce:	48 d3 e2             	shl    %cl,%rdx
ffffffffffe020d1:	48 89 d0             	mov    %rdx,%rax
ffffffffffe020d4:	48 83 e8 01          	sub    $0x1,%rax
ffffffffffe020d8:	48 89 45 c0          	mov    %rax,-0x40(%rbp)
ffffffffffe020dc:	48 8b 45 c8          	mov    -0x38(%rbp),%rax
ffffffffffe020e0:	89 c2                	mov    %eax,%edx
ffffffffffe020e2:	48 8b 45 d8          	mov    -0x28(%rbp),%rax
ffffffffffe020e6:	89 d1                	mov    %edx,%ecx
ffffffffffe020e8:	48 d3 e8             	shr    %cl,%rax
ffffffffffe020eb:	48 23 45 c0          	and    -0x40(%rbp),%rax
ffffffffffe020ef:	48 8b 55 c8          	mov    -0x38(%rbp),%rdx
ffffffffffe020f3:	89 d1                	mov    %edx,%ecx
ffffffffffe020f5:	48 d3 e0             	shl    %cl,%rax
ffffffffffe020f8:	48 89 05 c9 57 00 00 	mov    %rax,0x57c9(%rip)        # ffffffffffe078c8 <apic_addr>
ffffffffffe020ff:	48 8b 05 c2 57 00 00 	mov    0x57c2(%rip),%rax        # ffffffffffe078c8 <apic_addr>
ffffffffffe02106:	80 cc 08             	or     $0x8,%ah
ffffffffffe02109:	48 c7 45 f0 1b 00 00 	movq   $0x1b,-0x10(%rbp)
ffffffffffe02110:	00 
ffffffffffe02111:	48 89 45 e8          	mov    %rax,-0x18(%rbp)
ffffffffffe02115:	48 8b 45 e8          	mov    -0x18(%rbp),%rax
ffffffffffe02119:	89 45 e4             	mov    %eax,-0x1c(%rbp)
ffffffffffe0211c:	48 8b 45 e8          	mov    -0x18(%rbp),%rax
ffffffffffe02120:	48 c1 e8 20          	shr    $0x20,%rax
ffffffffffe02124:	89 45 e0             	mov    %eax,-0x20(%rbp)
ffffffffffe02127:	8b 45 e4             	mov    -0x1c(%rbp),%eax
ffffffffffe0212a:	8b 55 e0             	mov    -0x20(%rbp),%edx
ffffffffffe0212d:	48 8b 4d f0          	mov    -0x10(%rbp),%rcx
ffffffffffe02131:	0f 30                	wrmsr  
ffffffffffe02133:	90                   	nop
ffffffffffe02134:	bf 20 00 00 00       	mov    $0x20,%edi
ffffffffffe02139:	e8 ef fe ff ff       	callq  ffffffffffe0202d <read_apic32>
ffffffffffe0213e:	c1 e8 18             	shr    $0x18,%eax
ffffffffffe02141:	89 05 79 57 00 00    	mov    %eax,0x5779(%rip)        # ffffffffffe078c0 <apic_id>
ffffffffffe02147:	8b 05 73 57 00 00    	mov    0x5773(%rip),%eax        # ffffffffffe078c0 <apic_id>
ffffffffffe0214d:	89 c0                	mov    %eax,%eax
ffffffffffe0214f:	c9                   	leaveq 
ffffffffffe02150:	c3                   	retq   

ffffffffffe02151 <interrupt_hander_apic_timer>:
ffffffffffe02151:	68 ad de 00 00       	pushq  $0xdead
ffffffffffe02156:	41 57                	push   %r15
ffffffffffe02158:	41 56                	push   %r14
ffffffffffe0215a:	41 55                	push   %r13
ffffffffffe0215c:	41 54                	push   %r12
ffffffffffe0215e:	41 53                	push   %r11
ffffffffffe02160:	41 52                	push   %r10
ffffffffffe02162:	41 51                	push   %r9
ffffffffffe02164:	41 50                	push   %r8
ffffffffffe02166:	52                   	push   %rdx
ffffffffffe02167:	51                   	push   %rcx
ffffffffffe02168:	53                   	push   %rbx
ffffffffffe02169:	50                   	push   %rax
ffffffffffe0216a:	56                   	push   %rsi
ffffffffffe0216b:	57                   	push   %rdi
ffffffffffe0216c:	55                   	push   %rbp
ffffffffffe0216d:	48 89 e3             	mov    %rsp,%rbx
ffffffffffe02170:	48 89 df             	mov    %rbx,%rdi
ffffffffffe02173:	e8 0f 00 00 00       	callq  ffffffffffe02187 <c_interrupt_hander_apic_timer>
ffffffffffe02178:	e8 d6 fe ff ff       	callq  ffffffffffe02053 <apic_end_of_interrupt>
ffffffffffe0217d:	48 89 df             	mov    %rbx,%rdi
ffffffffffe02180:	e8 f1 29 00 00       	callq  ffffffffffe04b76 <return_from_interrupt>
ffffffffffe02185:	0f 0b                	ud2    

ffffffffffe02187 <c_interrupt_hander_apic_timer>:
ffffffffffe02187:	55                   	push   %rbp
ffffffffffe02188:	48 89 e5             	mov    %rsp,%rbp
ffffffffffe0218b:	48 83 ec 10          	sub    $0x10,%rsp
ffffffffffe0218f:	48 89 7d f8          	mov    %rdi,-0x8(%rbp)
ffffffffffe02193:	b8 00 00 00 00       	mov    $0x0,%eax
ffffffffffe02198:	e8 ea 42 00 00       	callq  ffffffffffe06487 <run_timers>
ffffffffffe0219d:	90                   	nop
ffffffffffe0219e:	c9                   	leaveq 
ffffffffffe0219f:	c3                   	retq   

ffffffffffe021a0 <calibrate_timer>:
ffffffffffe021a0:	55                   	push   %rbp
ffffffffffe021a1:	48 89 e5             	mov    %rsp,%rbp
ffffffffffe021a4:	48 81 ec 90 00 00 00 	sub    $0x90,%rsp
ffffffffffe021ab:	66 c7 45 a6 43 00    	movw   $0x43,-0x5a(%rbp)
ffffffffffe021b1:	c6 45 a5 30          	movb   $0x30,-0x5b(%rbp)
ffffffffffe021b5:	0f b7 55 a6          	movzwl -0x5a(%rbp),%edx
ffffffffffe021b9:	0f b6 45 a5          	movzbl -0x5b(%rbp),%eax
ffffffffffe021bd:	ee                   	out    %al,(%dx)
ffffffffffe021be:	90                   	nop
ffffffffffe021bf:	66 c7 45 aa 40 00    	movw   $0x40,-0x56(%rbp)
ffffffffffe021c5:	c6 45 a9 ff          	movb   $0xff,-0x57(%rbp)
ffffffffffe021c9:	0f b7 55 aa          	movzwl -0x56(%rbp),%edx
ffffffffffe021cd:	0f b6 45 a9          	movzbl -0x57(%rbp),%eax
ffffffffffe021d1:	ee                   	out    %al,(%dx)
ffffffffffe021d2:	90                   	nop
ffffffffffe021d3:	be 0d 00 00 00       	mov    $0xd,%esi
ffffffffffe021d8:	bf e0 03 00 00       	mov    $0x3e0,%edi
ffffffffffe021dd:	e8 1e fe ff ff       	callq  ffffffffffe02000 <write_apic32>
ffffffffffe021e2:	66 c7 45 ae 40 00    	movw   $0x40,-0x52(%rbp)
ffffffffffe021e8:	c6 45 ad ff          	movb   $0xff,-0x53(%rbp)
ffffffffffe021ec:	0f b7 55 ae          	movzwl -0x52(%rbp),%edx
ffffffffffe021f0:	0f b6 45 ad          	movzbl -0x53(%rbp),%eax
ffffffffffe021f4:	ee                   	out    %al,(%dx)
ffffffffffe021f5:	90                   	nop
ffffffffffe021f6:	be ff ff ff ff       	mov    $0xffffffff,%esi
ffffffffffe021fb:	bf 80 03 00 00       	mov    $0x380,%edi
ffffffffffe02200:	e8 fb fd ff ff       	callq  ffffffffffe02000 <write_apic32>
ffffffffffe02205:	48 c7 45 f8 ff ff 00 	movq   $0xffff,-0x8(%rbp)
ffffffffffe0220c:	00 
ffffffffffe0220d:	0f 31                	rdtsc  
ffffffffffe0220f:	89 55 b4             	mov    %edx,-0x4c(%rbp)
ffffffffffe02212:	89 45 b0             	mov    %eax,-0x50(%rbp)
ffffffffffe02215:	8b 45 b4             	mov    -0x4c(%rbp),%eax
ffffffffffe02218:	48 c1 e0 20          	shl    $0x20,%rax
ffffffffffe0221c:	48 89 c2             	mov    %rax,%rdx
ffffffffffe0221f:	8b 45 b0             	mov    -0x50(%rbp),%eax
ffffffffffe02222:	48 09 d0             	or     %rdx,%rax
ffffffffffe02225:	48 89 45 f0          	mov    %rax,-0x10(%rbp)
ffffffffffe02229:	b8 ff ff ff ff       	mov    $0xffffffff,%eax
ffffffffffe0222e:	48 89 45 e8          	mov    %rax,-0x18(%rbp)
ffffffffffe02232:	90                   	nop
ffffffffffe02233:	0f 31                	rdtsc  
ffffffffffe02235:	89 55 a0             	mov    %edx,-0x60(%rbp)
ffffffffffe02238:	89 45 9c             	mov    %eax,-0x64(%rbp)
ffffffffffe0223b:	8b 45 a0             	mov    -0x60(%rbp),%eax
ffffffffffe0223e:	48 c1 e0 20          	shl    $0x20,%rax
ffffffffffe02242:	48 89 c2             	mov    %rax,%rdx
ffffffffffe02245:	8b 45 9c             	mov    -0x64(%rbp),%eax
ffffffffffe02248:	48 09 c2             	or     %rax,%rdx
ffffffffffe0224b:	48 8b 45 f0          	mov    -0x10(%rbp),%rax
ffffffffffe0224f:	48 05 80 c3 c9 01    	add    $0x1c9c380,%rax
ffffffffffe02255:	48 39 c2             	cmp    %rax,%rdx
ffffffffffe02258:	72 d9                	jb     ffffffffffe02233 <calibrate_timer+0x93>
ffffffffffe0225a:	66 c7 85 76 ff ff ff 	movw   $0x43,-0x8a(%rbp)
ffffffffffe02261:	43 00 
ffffffffffe02263:	c6 85 75 ff ff ff 00 	movb   $0x0,-0x8b(%rbp)
ffffffffffe0226a:	0f b7 95 76 ff ff ff 	movzwl -0x8a(%rbp),%edx
ffffffffffe02271:	0f b6 85 75 ff ff ff 	movzbl -0x8b(%rbp),%eax
ffffffffffe02278:	ee                   	out    %al,(%dx)
ffffffffffe02279:	90                   	nop
ffffffffffe0227a:	66 c7 45 86 40 00    	movw   $0x40,-0x7a(%rbp)
ffffffffffe02280:	0f b7 45 86          	movzwl -0x7a(%rbp),%eax
ffffffffffe02284:	89 c2                	mov    %eax,%edx
ffffffffffe02286:	ec                   	in     (%dx),%al
ffffffffffe02287:	48 89 85 78 ff ff ff 	mov    %rax,-0x88(%rbp)
ffffffffffe0228e:	48 8b 85 78 ff ff ff 	mov    -0x88(%rbp),%rax
ffffffffffe02295:	0f b6 c0             	movzbl %al,%eax
ffffffffffe02298:	48 98                	cltq   
ffffffffffe0229a:	48 89 45 e0          	mov    %rax,-0x20(%rbp)
ffffffffffe0229e:	66 c7 45 92 40 00    	movw   $0x40,-0x6e(%rbp)
ffffffffffe022a4:	0f b7 45 92          	movzwl -0x6e(%rbp),%eax
ffffffffffe022a8:	89 c2                	mov    %eax,%edx
ffffffffffe022aa:	ec                   	in     (%dx),%al
ffffffffffe022ab:	48 89 45 88          	mov    %rax,-0x78(%rbp)
ffffffffffe022af:	48 8b 45 88          	mov    -0x78(%rbp),%rax
ffffffffffe022b3:	0f b6 c0             	movzbl %al,%eax
ffffffffffe022b6:	c1 e0 08             	shl    $0x8,%eax
ffffffffffe022b9:	48 98                	cltq   
ffffffffffe022bb:	48 09 45 e0          	or     %rax,-0x20(%rbp)
ffffffffffe022bf:	0f 31                	rdtsc  
ffffffffffe022c1:	89 55 98             	mov    %edx,-0x68(%rbp)
ffffffffffe022c4:	89 45 94             	mov    %eax,-0x6c(%rbp)
ffffffffffe022c7:	8b 45 98             	mov    -0x68(%rbp),%eax
ffffffffffe022ca:	48 c1 e0 20          	shl    $0x20,%rax
ffffffffffe022ce:	48 89 c2             	mov    %rax,%rdx
ffffffffffe022d1:	8b 45 94             	mov    -0x6c(%rbp),%eax
ffffffffffe022d4:	48 09 d0             	or     %rdx,%rax
ffffffffffe022d7:	48 89 45 d8          	mov    %rax,-0x28(%rbp)
ffffffffffe022db:	bf 90 03 00 00       	mov    $0x390,%edi
ffffffffffe022e0:	e8 48 fd ff ff       	callq  ffffffffffe0202d <read_apic32>
ffffffffffe022e5:	89 c0                	mov    %eax,%eax
ffffffffffe022e7:	48 89 45 d0          	mov    %rax,-0x30(%rbp)
ffffffffffe022eb:	48 8b 45 f8          	mov    -0x8(%rbp),%rax
ffffffffffe022ef:	48 2b 45 e0          	sub    -0x20(%rbp),%rax
ffffffffffe022f3:	48 69 c0 46 03 00 00 	imul   $0x346,%rax,%rax
ffffffffffe022fa:	48 89 45 c8          	mov    %rax,-0x38(%rbp)
ffffffffffe022fe:	48 8b 45 d8          	mov    -0x28(%rbp),%rax
ffffffffffe02302:	48 2b 45 f0          	sub    -0x10(%rbp),%rax
ffffffffffe02306:	48 89 45 c0          	mov    %rax,-0x40(%rbp)
ffffffffffe0230a:	48 8b 45 e8          	mov    -0x18(%rbp),%rax
ffffffffffe0230e:	48 2b 45 d0          	sub    -0x30(%rbp),%rax
ffffffffffe02312:	48 89 45 b8          	mov    %rax,-0x48(%rbp)
ffffffffffe02316:	48 8b 45 b8          	mov    -0x48(%rbp),%rax
ffffffffffe0231a:	48 69 c0 40 42 0f 00 	imul   $0xf4240,%rax,%rax
ffffffffffe02321:	ba 00 00 00 00       	mov    $0x0,%edx
ffffffffffe02326:	48 f7 75 c8          	divq   -0x38(%rbp)
ffffffffffe0232a:	48 89 05 a7 55 00 00 	mov    %rax,0x55a7(%rip)        # ffffffffffe078d8 <apic_ticks_per_ms>
ffffffffffe02331:	48 8b 45 c0          	mov    -0x40(%rbp),%rax
ffffffffffe02335:	48 69 c0 e8 03 00 00 	imul   $0x3e8,%rax,%rax
ffffffffffe0233c:	ba 00 00 00 00       	mov    $0x0,%edx
ffffffffffe02341:	48 f7 75 c8          	divq   -0x38(%rbp)
ffffffffffe02345:	48 89 05 84 55 00 00 	mov    %rax,0x5584(%rip)        # ffffffffffe078d0 <tsc_ticks_per_us>
ffffffffffe0234c:	be 00 00 00 00       	mov    $0x0,%esi
ffffffffffe02351:	bf 80 03 00 00       	mov    $0x380,%edi
ffffffffffe02356:	e8 a5 fc ff ff       	callq  ffffffffffe02000 <write_apic32>
ffffffffffe0235b:	90                   	nop
ffffffffffe0235c:	c9                   	leaveq 
ffffffffffe0235d:	c3                   	retq   

ffffffffffe0235e <schedule_apic_timer_interrupt>:
ffffffffffe0235e:	55                   	push   %rbp
ffffffffffe0235f:	48 89 e5             	mov    %rsp,%rbp
ffffffffffe02362:	48 83 ec 20          	sub    $0x20,%rsp
ffffffffffe02366:	48 89 7d e8          	mov    %rdi,-0x18(%rbp)
ffffffffffe0236a:	48 83 7d e8 00       	cmpq   $0x0,-0x18(%rbp)
ffffffffffe0236f:	75 14                	jne    ffffffffffe02385 <schedule_apic_timer_interrupt+0x27>
ffffffffffe02371:	be 00 00 00 00       	mov    $0x0,%esi
ffffffffffe02376:	bf 80 03 00 00       	mov    $0x380,%edi
ffffffffffe0237b:	e8 80 fc ff ff       	callq  ffffffffffe02000 <write_apic32>
ffffffffffe02380:	e9 d6 00 00 00       	jmpq   ffffffffffe0245b <schedule_apic_timer_interrupt+0xfd>
ffffffffffe02385:	b8 00 00 00 00       	mov    $0x0,%eax
ffffffffffe0238a:	e8 02 01 00 00       	callq  ffffffffffe02491 <current_time>
ffffffffffe0238f:	48 89 45 f8          	mov    %rax,-0x8(%rbp)
ffffffffffe02393:	48 8b 45 e8          	mov    -0x18(%rbp),%rax
ffffffffffe02397:	48 2b 45 f8          	sub    -0x8(%rbp),%rax
ffffffffffe0239b:	48 89 c2             	mov    %rax,%rdx
ffffffffffe0239e:	48 8b 05 33 55 00 00 	mov    0x5533(%rip),%rax        # ffffffffffe078d8 <apic_ticks_per_ms>
ffffffffffe023a5:	48 0f af c2          	imul   %rdx,%rax
ffffffffffe023a9:	48 c1 e8 03          	shr    $0x3,%rax
ffffffffffe023ad:	48 ba cf f7 53 e3 a5 	movabs $0x20c49ba5e353f7cf,%rdx
ffffffffffe023b4:	9b c4 20 
ffffffffffe023b7:	48 f7 e2             	mul    %rdx
ffffffffffe023ba:	48 89 d0             	mov    %rdx,%rax
ffffffffffe023bd:	48 c1 e8 04          	shr    $0x4,%rax
ffffffffffe023c1:	48 89 45 f0          	mov    %rax,-0x10(%rbp)
ffffffffffe023c5:	48 8b 45 e8          	mov    -0x18(%rbp),%rax
ffffffffffe023c9:	48 3b 45 f8          	cmp    -0x8(%rbp),%rax
ffffffffffe023cd:	76 7d                	jbe    ffffffffffe0244c <schedule_apic_timer_interrupt+0xee>
ffffffffffe023cf:	b8 ff ff ff ff       	mov    $0xffffffff,%eax
ffffffffffe023d4:	48 39 45 f0          	cmp    %rax,-0x10(%rbp)
ffffffffffe023d8:	77 21                	ja     ffffffffffe023fb <schedule_apic_timer_interrupt+0x9d>
ffffffffffe023da:	be 0d 00 00 00       	mov    $0xd,%esi
ffffffffffe023df:	bf e0 03 00 00       	mov    $0x3e0,%edi
ffffffffffe023e4:	e8 17 fc ff ff       	callq  ffffffffffe02000 <write_apic32>
ffffffffffe023e9:	48 8b 45 f0          	mov    -0x10(%rbp),%rax
ffffffffffe023ed:	89 c6                	mov    %eax,%esi
ffffffffffe023ef:	bf 80 03 00 00       	mov    $0x380,%edi
ffffffffffe023f4:	e8 07 fc ff ff       	callq  ffffffffffe02000 <write_apic32>
ffffffffffe023f9:	eb 60                	jmp    ffffffffffe0245b <schedule_apic_timer_interrupt+0xfd>
ffffffffffe023fb:	48 b8 80 ff ff ff 7f 	movabs $0x7fffffff80,%rax
ffffffffffe02402:	00 00 00 
ffffffffffe02405:	48 39 45 f0          	cmp    %rax,-0x10(%rbp)
ffffffffffe02409:	77 21                	ja     ffffffffffe0242c <schedule_apic_timer_interrupt+0xce>
ffffffffffe0240b:	be 0c 00 00 00       	mov    $0xc,%esi
ffffffffffe02410:	bf e0 03 00 00       	mov    $0x3e0,%edi
ffffffffffe02415:	e8 e6 fb ff ff       	callq  ffffffffffe02000 <write_apic32>
ffffffffffe0241a:	48 8b 45 f0          	mov    -0x10(%rbp),%rax
ffffffffffe0241e:	89 c6                	mov    %eax,%esi
ffffffffffe02420:	bf 80 03 00 00       	mov    $0x380,%edi
ffffffffffe02425:	e8 d6 fb ff ff       	callq  ffffffffffe02000 <write_apic32>
ffffffffffe0242a:	eb 2f                	jmp    ffffffffffe0245b <schedule_apic_timer_interrupt+0xfd>
ffffffffffe0242c:	be 0c 00 00 00       	mov    $0xc,%esi
ffffffffffe02431:	bf e0 03 00 00       	mov    $0x3e0,%edi
ffffffffffe02436:	e8 c5 fb ff ff       	callq  ffffffffffe02000 <write_apic32>
ffffffffffe0243b:	be ff ff ff ff       	mov    $0xffffffff,%esi
ffffffffffe02440:	bf 80 03 00 00       	mov    $0x380,%edi
ffffffffffe02445:	e8 b6 fb ff ff       	callq  ffffffffffe02000 <write_apic32>
ffffffffffe0244a:	eb 0f                	jmp    ffffffffffe0245b <schedule_apic_timer_interrupt+0xfd>
ffffffffffe0244c:	be 01 00 00 00       	mov    $0x1,%esi
ffffffffffe02451:	bf 80 03 00 00       	mov    $0x380,%edi
ffffffffffe02456:	e8 a5 fb ff ff       	callq  ffffffffffe02000 <write_apic32>
ffffffffffe0245b:	c9                   	leaveq 
ffffffffffe0245c:	c3                   	retq   

ffffffffffe0245d <init_apic_timer>:
ffffffffffe0245d:	55                   	push   %rbp
ffffffffffe0245e:	48 89 e5             	mov    %rsp,%rbp
ffffffffffe02461:	be 30 00 00 00       	mov    $0x30,%esi
ffffffffffe02466:	bf 20 03 00 00       	mov    $0x320,%edi
ffffffffffe0246b:	e8 90 fb ff ff       	callq  ffffffffffe02000 <write_apic32>
ffffffffffe02470:	b8 00 00 00 00       	mov    $0x0,%eax
ffffffffffe02475:	e8 26 fd ff ff       	callq  ffffffffffe021a0 <calibrate_timer>
ffffffffffe0247a:	48 8d 05 d0 fc ff ff 	lea    -0x330(%rip),%rax        # ffffffffffe02151 <interrupt_hander_apic_timer>
ffffffffffe02481:	48 89 c6             	mov    %rax,%rsi
ffffffffffe02484:	bf 30 00 00 00       	mov    $0x30,%edi
ffffffffffe02489:	e8 3a 27 00 00       	callq  ffffffffffe04bc8 <set_irq_handler>
ffffffffffe0248e:	90                   	nop
ffffffffffe0248f:	5d                   	pop    %rbp
ffffffffffe02490:	c3                   	retq   

ffffffffffe02491 <current_time>:
ffffffffffe02491:	55                   	push   %rbp
ffffffffffe02492:	48 89 e5             	mov    %rsp,%rbp
ffffffffffe02495:	48 83 ec 10          	sub    $0x10,%rsp
ffffffffffe02499:	0f 31                	rdtsc  
ffffffffffe0249b:	89 55 fc             	mov    %edx,-0x4(%rbp)
ffffffffffe0249e:	89 45 f8             	mov    %eax,-0x8(%rbp)
ffffffffffe024a1:	8b 45 fc             	mov    -0x4(%rbp),%eax
ffffffffffe024a4:	48 c1 e0 20          	shl    $0x20,%rax
ffffffffffe024a8:	48 89 c2             	mov    %rax,%rdx
ffffffffffe024ab:	8b 45 f8             	mov    -0x8(%rbp),%eax
ffffffffffe024ae:	48 09 d0             	or     %rdx,%rax
ffffffffffe024b1:	48 8b 0d 18 54 00 00 	mov    0x5418(%rip),%rcx        # ffffffffffe078d0 <tsc_ticks_per_us>
ffffffffffe024b8:	ba 00 00 00 00       	mov    $0x0,%edx
ffffffffffe024bd:	48 f7 f1             	div    %rcx
ffffffffffe024c0:	c9                   	leaveq 
ffffffffffe024c1:	c3                   	retq   

ffffffffffe024c2 <init_serial>:
ffffffffffe024c2:	55                   	push   %rbp
ffffffffffe024c3:	48 89 e5             	mov    %rsp,%rbp
ffffffffffe024c6:	48 83 ec 40          	sub    $0x40,%rsp
ffffffffffe024ca:	66 c7 45 ce f9 03    	movw   $0x3f9,-0x32(%rbp)
ffffffffffe024d0:	c6 45 cd 00          	movb   $0x0,-0x33(%rbp)
ffffffffffe024d4:	0f b7 55 ce          	movzwl -0x32(%rbp),%edx
ffffffffffe024d8:	0f b6 45 cd          	movzbl -0x33(%rbp),%eax
ffffffffffe024dc:	ee                   	out    %al,(%dx)
ffffffffffe024dd:	90                   	nop
ffffffffffe024de:	66 c7 45 d2 fb 03    	movw   $0x3fb,-0x2e(%rbp)
ffffffffffe024e4:	c6 45 d1 80          	movb   $0x80,-0x2f(%rbp)
ffffffffffe024e8:	0f b7 55 d2          	movzwl -0x2e(%rbp),%edx
ffffffffffe024ec:	0f b6 45 d1          	movzbl -0x2f(%rbp),%eax
ffffffffffe024f0:	ee                   	out    %al,(%dx)
ffffffffffe024f1:	90                   	nop
ffffffffffe024f2:	66 c7 45 d6 f8 03    	movw   $0x3f8,-0x2a(%rbp)
ffffffffffe024f8:	c6 45 d5 03          	movb   $0x3,-0x2b(%rbp)
ffffffffffe024fc:	0f b7 55 d6          	movzwl -0x2a(%rbp),%edx
ffffffffffe02500:	0f b6 45 d5          	movzbl -0x2b(%rbp),%eax
ffffffffffe02504:	ee                   	out    %al,(%dx)
ffffffffffe02505:	90                   	nop
ffffffffffe02506:	66 c7 45 da f9 03    	movw   $0x3f9,-0x26(%rbp)
ffffffffffe0250c:	c6 45 d9 00          	movb   $0x0,-0x27(%rbp)
ffffffffffe02510:	0f b7 55 da          	movzwl -0x26(%rbp),%edx
ffffffffffe02514:	0f b6 45 d9          	movzbl -0x27(%rbp),%eax
ffffffffffe02518:	ee                   	out    %al,(%dx)
ffffffffffe02519:	90                   	nop
ffffffffffe0251a:	66 c7 45 de fb 03    	movw   $0x3fb,-0x22(%rbp)
ffffffffffe02520:	c6 45 dd 03          	movb   $0x3,-0x23(%rbp)
ffffffffffe02524:	0f b7 55 de          	movzwl -0x22(%rbp),%edx
ffffffffffe02528:	0f b6 45 dd          	movzbl -0x23(%rbp),%eax
ffffffffffe0252c:	ee                   	out    %al,(%dx)
ffffffffffe0252d:	90                   	nop
ffffffffffe0252e:	66 c7 45 e2 fa 03    	movw   $0x3fa,-0x1e(%rbp)
ffffffffffe02534:	c6 45 e1 c7          	movb   $0xc7,-0x1f(%rbp)
ffffffffffe02538:	0f b7 55 e2          	movzwl -0x1e(%rbp),%edx
ffffffffffe0253c:	0f b6 45 e1          	movzbl -0x1f(%rbp),%eax
ffffffffffe02540:	ee                   	out    %al,(%dx)
ffffffffffe02541:	90                   	nop
ffffffffffe02542:	66 c7 45 e6 fc 03    	movw   $0x3fc,-0x1a(%rbp)
ffffffffffe02548:	c6 45 e5 0b          	movb   $0xb,-0x1b(%rbp)
ffffffffffe0254c:	0f b7 55 e6          	movzwl -0x1a(%rbp),%edx
ffffffffffe02550:	0f b6 45 e5          	movzbl -0x1b(%rbp),%eax
ffffffffffe02554:	ee                   	out    %al,(%dx)
ffffffffffe02555:	90                   	nop
ffffffffffe02556:	66 c7 45 ea fc 03    	movw   $0x3fc,-0x16(%rbp)
ffffffffffe0255c:	c6 45 e9 1e          	movb   $0x1e,-0x17(%rbp)
ffffffffffe02560:	0f b7 55 ea          	movzwl -0x16(%rbp),%edx
ffffffffffe02564:	0f b6 45 e9          	movzbl -0x17(%rbp),%eax
ffffffffffe02568:	ee                   	out    %al,(%dx)
ffffffffffe02569:	90                   	nop
ffffffffffe0256a:	66 c7 45 ee f8 03    	movw   $0x3f8,-0x12(%rbp)
ffffffffffe02570:	c6 45 ed ae          	movb   $0xae,-0x13(%rbp)
ffffffffffe02574:	0f b7 55 ee          	movzwl -0x12(%rbp),%edx
ffffffffffe02578:	0f b6 45 ed          	movzbl -0x13(%rbp),%eax
ffffffffffe0257c:	ee                   	out    %al,(%dx)
ffffffffffe0257d:	90                   	nop
ffffffffffe0257e:	66 c7 45 fe f8 03    	movw   $0x3f8,-0x2(%rbp)
ffffffffffe02584:	0f b7 45 fe          	movzwl -0x2(%rbp),%eax
ffffffffffe02588:	89 c2                	mov    %eax,%edx
ffffffffffe0258a:	ec                   	in     (%dx),%al
ffffffffffe0258b:	48 89 45 f0          	mov    %rax,-0x10(%rbp)
ffffffffffe0258f:	48 8b 45 f0          	mov    -0x10(%rbp),%rax
ffffffffffe02593:	0f b6 c0             	movzbl %al,%eax
ffffffffffe02596:	3d ae 00 00 00       	cmp    $0xae,%eax
ffffffffffe0259b:	74 07                	je     ffffffffffe025a4 <init_serial+0xe2>
ffffffffffe0259d:	b8 01 00 00 00       	mov    $0x1,%eax
ffffffffffe025a2:	eb 19                	jmp    ffffffffffe025bd <init_serial+0xfb>
ffffffffffe025a4:	66 c7 45 ca fc 03    	movw   $0x3fc,-0x36(%rbp)
ffffffffffe025aa:	c6 45 c9 0f          	movb   $0xf,-0x37(%rbp)
ffffffffffe025ae:	0f b7 55 ca          	movzwl -0x36(%rbp),%edx
ffffffffffe025b2:	0f b6 45 c9          	movzbl -0x37(%rbp),%eax
ffffffffffe025b6:	ee                   	out    %al,(%dx)
ffffffffffe025b7:	90                   	nop
ffffffffffe025b8:	b8 00 00 00 00       	mov    $0x0,%eax
ffffffffffe025bd:	c9                   	leaveq 
ffffffffffe025be:	c3                   	retq   

ffffffffffe025bf <is_transmit_empty>:
ffffffffffe025bf:	55                   	push   %rbp
ffffffffffe025c0:	48 89 e5             	mov    %rsp,%rbp
ffffffffffe025c3:	48 83 ec 10          	sub    $0x10,%rsp
ffffffffffe025c7:	66 c7 45 fe fd 03    	movw   $0x3fd,-0x2(%rbp)
ffffffffffe025cd:	0f b7 45 fe          	movzwl -0x2(%rbp),%eax
ffffffffffe025d1:	89 c2                	mov    %eax,%edx
ffffffffffe025d3:	ec                   	in     (%dx),%al
ffffffffffe025d4:	48 89 45 f0          	mov    %rax,-0x10(%rbp)
ffffffffffe025d8:	48 8b 45 f0          	mov    -0x10(%rbp),%rax
ffffffffffe025dc:	0f b6 c0             	movzbl %al,%eax
ffffffffffe025df:	83 e0 20             	and    $0x20,%eax
ffffffffffe025e2:	c9                   	leaveq 
ffffffffffe025e3:	c3                   	retq   

ffffffffffe025e4 <write_serial>:
ffffffffffe025e4:	55                   	push   %rbp
ffffffffffe025e5:	48 89 e5             	mov    %rsp,%rbp
ffffffffffe025e8:	48 83 ec 18          	sub    $0x18,%rsp
ffffffffffe025ec:	89 f8                	mov    %edi,%eax
ffffffffffe025ee:	88 45 ec             	mov    %al,-0x14(%rbp)
ffffffffffe025f1:	90                   	nop
ffffffffffe025f2:	b8 00 00 00 00       	mov    $0x0,%eax
ffffffffffe025f7:	e8 c3 ff ff ff       	callq  ffffffffffe025bf <is_transmit_empty>
ffffffffffe025fc:	85 c0                	test   %eax,%eax
ffffffffffe025fe:	74 f2                	je     ffffffffffe025f2 <write_serial+0xe>
ffffffffffe02600:	0f b6 45 ec          	movzbl -0x14(%rbp),%eax
ffffffffffe02604:	0f b6 c0             	movzbl %al,%eax
ffffffffffe02607:	66 c7 45 fe f8 03    	movw   $0x3f8,-0x2(%rbp)
ffffffffffe0260d:	88 45 fd             	mov    %al,-0x3(%rbp)
ffffffffffe02610:	0f b7 55 fe          	movzwl -0x2(%rbp),%edx
ffffffffffe02614:	0f b6 45 fd          	movzbl -0x3(%rbp),%eax
ffffffffffe02618:	ee                   	out    %al,(%dx)
ffffffffffe02619:	90                   	nop
ffffffffffe0261a:	90                   	nop
ffffffffffe0261b:	c9                   	leaveq 
ffffffffffe0261c:	c3                   	retq   

ffffffffffe0261d <fb_setcol>:
ffffffffffe0261d:	55                   	push   %rbp
ffffffffffe0261e:	48 89 e5             	mov    %rsp,%rbp
ffffffffffe02621:	48 83 ec 08          	sub    $0x8,%rsp
ffffffffffe02625:	89 7d fc             	mov    %edi,-0x4(%rbp)
ffffffffffe02628:	8b 45 fc             	mov    -0x4(%rbp),%eax
ffffffffffe0262b:	89 05 e7 52 00 00    	mov    %eax,0x52e7(%rip)        # ffffffffffe07918 <framebuf+0x38>
ffffffffffe02631:	90                   	nop
ffffffffffe02632:	c9                   	leaveq 
ffffffffffe02633:	c3                   	retq   

ffffffffffe02634 <fb_newline>:
ffffffffffe02634:	55                   	push   %rbp
ffffffffffe02635:	48 89 e5             	mov    %rsp,%rbp
ffffffffffe02638:	48 83 ec 20          	sub    $0x20,%rsp
ffffffffffe0263c:	c7 05 a2 52 00 00 00 	movl   $0x0,0x52a2(%rip)        # ffffffffffe078e8 <framebuf+0x8>
ffffffffffe02643:	00 00 00 
ffffffffffe02646:	8b 05 a0 52 00 00    	mov    0x52a0(%rip),%eax        # ffffffffffe078ec <framebuf+0xc>
ffffffffffe0264c:	83 c0 01             	add    $0x1,%eax
ffffffffffe0264f:	8b 0d b3 52 00 00    	mov    0x52b3(%rip),%ecx        # ffffffffffe07908 <framebuf+0x28>
ffffffffffe02655:	99                   	cltd   
ffffffffffe02656:	f7 f9                	idiv   %ecx
ffffffffffe02658:	89 d0                	mov    %edx,%eax
ffffffffffe0265a:	89 05 8c 52 00 00    	mov    %eax,0x528c(%rip)        # ffffffffffe078ec <framebuf+0xc>
ffffffffffe02660:	8b 05 86 52 00 00    	mov    0x5286(%rip),%eax        # ffffffffffe078ec <framebuf+0xc>
ffffffffffe02666:	83 c0 01             	add    $0x1,%eax
ffffffffffe02669:	8b 0d 99 52 00 00    	mov    0x5299(%rip),%ecx        # ffffffffffe07908 <framebuf+0x28>
ffffffffffe0266f:	99                   	cltd   
ffffffffffe02670:	f7 f9                	idiv   %ecx
ffffffffffe02672:	89 55 e8             	mov    %edx,-0x18(%rbp)
ffffffffffe02675:	c7 45 fc 00 00 00 00 	movl   $0x0,-0x4(%rbp)
ffffffffffe0267c:	eb 60                	jmp    ffffffffffe026de <fb_newline+0xaa>
ffffffffffe0267e:	8b 05 7c 52 00 00    	mov    0x527c(%rip),%eax        # ffffffffffe07900 <framebuf+0x20>
ffffffffffe02684:	0f af 45 e8          	imul   -0x18(%rbp),%eax
ffffffffffe02688:	89 c2                	mov    %eax,%edx
ffffffffffe0268a:	8b 45 fc             	mov    -0x4(%rbp),%eax
ffffffffffe0268d:	01 c2                	add    %eax,%edx
ffffffffffe0268f:	8b 05 63 52 00 00    	mov    0x5263(%rip),%eax        # ffffffffffe078f8 <framebuf+0x18>
ffffffffffe02695:	0f af c2             	imul   %edx,%eax
ffffffffffe02698:	48 98                	cltq   
ffffffffffe0269a:	48 89 45 e0          	mov    %rax,-0x20(%rbp)
ffffffffffe0269e:	48 8b 15 3b 52 00 00 	mov    0x523b(%rip),%rdx        # ffffffffffe078e0 <framebuf>
ffffffffffe026a5:	48 8b 45 e0          	mov    -0x20(%rbp),%rax
ffffffffffe026a9:	48 01 d0             	add    %rdx,%rax
ffffffffffe026ac:	48 89 45 f0          	mov    %rax,-0x10(%rbp)
ffffffffffe026b0:	c7 45 ec 00 00 00 00 	movl   $0x0,-0x14(%rbp)
ffffffffffe026b7:	eb 16                	jmp    ffffffffffe026cf <fb_newline+0x9b>
ffffffffffe026b9:	48 8b 45 f0          	mov    -0x10(%rbp),%rax
ffffffffffe026bd:	48 8d 50 04          	lea    0x4(%rax),%rdx
ffffffffffe026c1:	48 89 55 f0          	mov    %rdx,-0x10(%rbp)
ffffffffffe026c5:	c7 00 00 00 00 00    	movl   $0x0,(%rax)
ffffffffffe026cb:	83 45 ec 01          	addl   $0x1,-0x14(%rbp)
ffffffffffe026cf:	8b 05 1b 52 00 00    	mov    0x521b(%rip),%eax        # ffffffffffe078f0 <framebuf+0x10>
ffffffffffe026d5:	39 45 ec             	cmp    %eax,-0x14(%rbp)
ffffffffffe026d8:	7c df                	jl     ffffffffffe026b9 <fb_newline+0x85>
ffffffffffe026da:	83 45 fc 01          	addl   $0x1,-0x4(%rbp)
ffffffffffe026de:	8b 05 1c 52 00 00    	mov    0x521c(%rip),%eax        # ffffffffffe07900 <framebuf+0x20>
ffffffffffe026e4:	39 45 fc             	cmp    %eax,-0x4(%rbp)
ffffffffffe026e7:	7c 95                	jl     ffffffffffe0267e <fb_newline+0x4a>
ffffffffffe026e9:	90                   	nop
ffffffffffe026ea:	90                   	nop
ffffffffffe026eb:	c9                   	leaveq 
ffffffffffe026ec:	c3                   	retq   

ffffffffffe026ed <fb_advance>:
ffffffffffe026ed:	55                   	push   %rbp
ffffffffffe026ee:	48 89 e5             	mov    %rsp,%rbp
ffffffffffe026f1:	8b 05 f1 51 00 00    	mov    0x51f1(%rip),%eax        # ffffffffffe078e8 <framebuf+0x8>
ffffffffffe026f7:	83 c0 01             	add    $0x1,%eax
ffffffffffe026fa:	89 05 e8 51 00 00    	mov    %eax,0x51e8(%rip)        # ffffffffffe078e8 <framebuf+0x8>
ffffffffffe02700:	8b 15 e2 51 00 00    	mov    0x51e2(%rip),%edx        # ffffffffffe078e8 <framebuf+0x8>
ffffffffffe02706:	8b 05 f8 51 00 00    	mov    0x51f8(%rip),%eax        # ffffffffffe07904 <framebuf+0x24>
ffffffffffe0270c:	39 c2                	cmp    %eax,%edx
ffffffffffe0270e:	7c 0a                	jl     ffffffffffe0271a <fb_advance+0x2d>
ffffffffffe02710:	b8 00 00 00 00       	mov    $0x0,%eax
ffffffffffe02715:	e8 1a ff ff ff       	callq  ffffffffffe02634 <fb_newline>
ffffffffffe0271a:	90                   	nop
ffffffffffe0271b:	5d                   	pop    %rbp
ffffffffffe0271c:	c3                   	retq   

ffffffffffe0271d <init_fb>:
ffffffffffe0271d:	55                   	push   %rbp
ffffffffffe0271e:	48 89 e5             	mov    %rsp,%rbp
ffffffffffe02721:	48 c7 05 b4 51 00 00 	movq   $0xfffffffffc000000,0x51b4(%rip)        # ffffffffffe078e0 <framebuf>
ffffffffffe02728:	00 00 00 fc 
ffffffffffe0272c:	48 8d 05 49 49 00 00 	lea    0x4949(%rip),%rax        # ffffffffffe0707c <_binary_font_psf_start>
ffffffffffe02733:	48 89 05 d6 51 00 00 	mov    %rax,0x51d6(%rip)        # ffffffffffe07910 <framebuf+0x30>
ffffffffffe0273a:	48 8b 05 cf 51 00 00 	mov    0x51cf(%rip),%rax        # ffffffffffe07910 <framebuf+0x30>
ffffffffffe02741:	8b 40 1c             	mov    0x1c(%rax),%eax
ffffffffffe02744:	83 c0 01             	add    $0x1,%eax
ffffffffffe02747:	89 05 af 51 00 00    	mov    %eax,0x51af(%rip)        # ffffffffffe078fc <framebuf+0x1c>
ffffffffffe0274d:	48 8b 05 bc 51 00 00 	mov    0x51bc(%rip),%rax        # ffffffffffe07910 <framebuf+0x30>
ffffffffffe02754:	8b 40 18             	mov    0x18(%rax),%eax
ffffffffffe02757:	89 05 a3 51 00 00    	mov    %eax,0x51a3(%rip)        # ffffffffffe07900 <framebuf+0x20>
ffffffffffe0275d:	48 c7 c0 00 00 e0 ff 	mov    $0xffffffffffe00000,%rax
ffffffffffe02764:	8b 40 34             	mov    0x34(%rax),%eax
ffffffffffe02767:	89 05 83 51 00 00    	mov    %eax,0x5183(%rip)        # ffffffffffe078f0 <framebuf+0x10>
ffffffffffe0276d:	48 c7 c0 00 00 e0 ff 	mov    $0xffffffffffe00000,%rax
ffffffffffe02774:	8b 40 38             	mov    0x38(%rax),%eax
ffffffffffe02777:	89 05 77 51 00 00    	mov    %eax,0x5177(%rip)        # ffffffffffe078f4 <framebuf+0x14>
ffffffffffe0277d:	48 c7 c0 00 00 e0 ff 	mov    $0xffffffffffe00000,%rax
ffffffffffe02784:	8b 40 3c             	mov    0x3c(%rax),%eax
ffffffffffe02787:	89 05 6b 51 00 00    	mov    %eax,0x516b(%rip)        # ffffffffffe078f8 <framebuf+0x18>
ffffffffffe0278d:	48 c7 c0 00 00 e0 ff 	mov    $0xffffffffffe00000,%rax
ffffffffffe02794:	8b 40 34             	mov    0x34(%rax),%eax
ffffffffffe02797:	8b 15 5f 51 00 00    	mov    0x515f(%rip),%edx        # ffffffffffe078fc <framebuf+0x1c>
ffffffffffe0279d:	89 d1                	mov    %edx,%ecx
ffffffffffe0279f:	ba 00 00 00 00       	mov    $0x0,%edx
ffffffffffe027a4:	f7 f1                	div    %ecx
ffffffffffe027a6:	89 05 58 51 00 00    	mov    %eax,0x5158(%rip)        # ffffffffffe07904 <framebuf+0x24>
ffffffffffe027ac:	48 c7 c0 00 00 e0 ff 	mov    $0xffffffffffe00000,%rax
ffffffffffe027b3:	8b 40 38             	mov    0x38(%rax),%eax
ffffffffffe027b6:	8b 15 44 51 00 00    	mov    0x5144(%rip),%edx        # ffffffffffe07900 <framebuf+0x20>
ffffffffffe027bc:	89 d6                	mov    %edx,%esi
ffffffffffe027be:	ba 00 00 00 00       	mov    $0x0,%edx
ffffffffffe027c3:	f7 f6                	div    %esi
ffffffffffe027c5:	89 05 3d 51 00 00    	mov    %eax,0x513d(%rip)        # ffffffffffe07908 <framebuf+0x28>
ffffffffffe027cb:	b8 00 00 00 00       	mov    $0x0,%eax
ffffffffffe027d0:	e8 ed fc ff ff       	callq  ffffffffffe024c2 <init_serial>
ffffffffffe027d5:	90                   	nop
ffffffffffe027d6:	5d                   	pop    %rbp
ffffffffffe027d7:	c3                   	retq   

ffffffffffe027d8 <fb_putchar>:
ffffffffffe027d8:	55                   	push   %rbp
ffffffffffe027d9:	48 89 e5             	mov    %rsp,%rbp
ffffffffffe027dc:	48 83 ec 48          	sub    $0x48,%rsp
ffffffffffe027e0:	89 f8                	mov    %edi,%eax
ffffffffffe027e2:	88 45 bc             	mov    %al,-0x44(%rbp)
ffffffffffe027e5:	80 7d bc 0a          	cmpb   $0xa,-0x44(%rbp)
ffffffffffe027e9:	75 0f                	jne    ffffffffffe027fa <fb_putchar+0x22>
ffffffffffe027eb:	b8 00 00 00 00       	mov    $0x0,%eax
ffffffffffe027f0:	e8 3f fe ff ff       	callq  ffffffffffe02634 <fb_newline>
ffffffffffe027f5:	e9 85 01 00 00       	jmpq   ffffffffffe0297f <fb_putchar+0x1a7>
ffffffffffe027fa:	48 8b 05 0f 51 00 00 	mov    0x510f(%rip),%rax        # ffffffffffe07910 <framebuf+0x30>
ffffffffffe02801:	48 89 45 e0          	mov    %rax,-0x20(%rbp)
ffffffffffe02805:	48 8b 45 e0          	mov    -0x20(%rbp),%rax
ffffffffffe02809:	8b 40 1c             	mov    0x1c(%rax),%eax
ffffffffffe0280c:	83 c0 07             	add    $0x7,%eax
ffffffffffe0280f:	c1 e8 03             	shr    $0x3,%eax
ffffffffffe02812:	89 45 dc             	mov    %eax,-0x24(%rbp)
ffffffffffe02815:	8b 15 d1 50 00 00    	mov    0x50d1(%rip),%edx        # ffffffffffe078ec <framebuf+0xc>
ffffffffffe0281b:	8b 05 df 50 00 00    	mov    0x50df(%rip),%eax        # ffffffffffe07900 <framebuf+0x20>
ffffffffffe02821:	0f af d0             	imul   %eax,%edx
ffffffffffe02824:	8b 05 ce 50 00 00    	mov    0x50ce(%rip),%eax        # ffffffffffe078f8 <framebuf+0x18>
ffffffffffe0282a:	0f af c2             	imul   %edx,%eax
ffffffffffe0282d:	89 45 fc             	mov    %eax,-0x4(%rbp)
ffffffffffe02830:	8b 15 b2 50 00 00    	mov    0x50b2(%rip),%edx        # ffffffffffe078e8 <framebuf+0x8>
ffffffffffe02836:	8b 05 c0 50 00 00    	mov    0x50c0(%rip),%eax        # ffffffffffe078fc <framebuf+0x1c>
ffffffffffe0283c:	0f af c2             	imul   %edx,%eax
ffffffffffe0283f:	c1 e0 02             	shl    $0x2,%eax
ffffffffffe02842:	01 45 fc             	add    %eax,-0x4(%rbp)
ffffffffffe02845:	80 7d bc 00          	cmpb   $0x0,-0x44(%rbp)
ffffffffffe02849:	7e 18                	jle    ffffffffffe02863 <fb_putchar+0x8b>
ffffffffffe0284b:	0f be 55 bc          	movsbl -0x44(%rbp),%edx
ffffffffffe0284f:	48 8b 45 e0          	mov    -0x20(%rbp),%rax
ffffffffffe02853:	8b 40 10             	mov    0x10(%rax),%eax
ffffffffffe02856:	39 c2                	cmp    %eax,%edx
ffffffffffe02858:	73 09                	jae    ffffffffffe02863 <fb_putchar+0x8b>
ffffffffffe0285a:	0f be 45 bc          	movsbl -0x44(%rbp),%eax
ffffffffffe0285e:	89 45 f8             	mov    %eax,-0x8(%rbp)
ffffffffffe02861:	eb 07                	jmp    ffffffffffe0286a <fb_putchar+0x92>
ffffffffffe02863:	c7 45 f8 00 00 00 00 	movl   $0x0,-0x8(%rbp)
ffffffffffe0286a:	48 8b 45 e0          	mov    -0x20(%rbp),%rax
ffffffffffe0286e:	8b 40 08             	mov    0x8(%rax),%eax
ffffffffffe02871:	89 c1                	mov    %eax,%ecx
ffffffffffe02873:	48 8b 45 e0          	mov    -0x20(%rbp),%rax
ffffffffffe02877:	8b 50 14             	mov    0x14(%rax),%edx
ffffffffffe0287a:	8b 45 f8             	mov    -0x8(%rbp),%eax
ffffffffffe0287d:	0f af c2             	imul   %edx,%eax
ffffffffffe02880:	89 c0                	mov    %eax,%eax
ffffffffffe02882:	48 8d 14 01          	lea    (%rcx,%rax,1),%rdx
ffffffffffe02886:	48 8b 45 e0          	mov    -0x20(%rbp),%rax
ffffffffffe0288a:	48 01 d0             	add    %rdx,%rax
ffffffffffe0288d:	48 89 45 f0          	mov    %rax,-0x10(%rbp)
ffffffffffe02891:	c7 45 ec 00 00 00 00 	movl   $0x0,-0x14(%rbp)
ffffffffffe02898:	e9 c6 00 00 00       	jmpq   ffffffffffe02963 <fb_putchar+0x18b>
ffffffffffe0289d:	c7 45 e8 00 00 00 00 	movl   $0x0,-0x18(%rbp)
ffffffffffe028a4:	e9 92 00 00 00       	jmpq   ffffffffffe0293b <fb_putchar+0x163>
ffffffffffe028a9:	8b 45 e8             	mov    -0x18(%rbp),%eax
ffffffffffe028ac:	8d 50 07             	lea    0x7(%rax),%edx
ffffffffffe028af:	85 c0                	test   %eax,%eax
ffffffffffe028b1:	0f 48 c2             	cmovs  %edx,%eax
ffffffffffe028b4:	c1 f8 03             	sar    $0x3,%eax
ffffffffffe028b7:	89 45 d8             	mov    %eax,-0x28(%rbp)
ffffffffffe028ba:	8b 45 e8             	mov    -0x18(%rbp),%eax
ffffffffffe028bd:	99                   	cltd   
ffffffffffe028be:	c1 ea 1d             	shr    $0x1d,%edx
ffffffffffe028c1:	01 d0                	add    %edx,%eax
ffffffffffe028c3:	83 e0 07             	and    $0x7,%eax
ffffffffffe028c6:	29 d0                	sub    %edx,%eax
ffffffffffe028c8:	89 c2                	mov    %eax,%edx
ffffffffffe028ca:	b8 07 00 00 00       	mov    $0x7,%eax
ffffffffffe028cf:	29 d0                	sub    %edx,%eax
ffffffffffe028d1:	89 45 d4             	mov    %eax,-0x2c(%rbp)
ffffffffffe028d4:	8b 45 d8             	mov    -0x28(%rbp),%eax
ffffffffffe028d7:	48 63 d0             	movslq %eax,%rdx
ffffffffffe028da:	48 8b 45 f0          	mov    -0x10(%rbp),%rax
ffffffffffe028de:	48 01 d0             	add    %rdx,%rax
ffffffffffe028e1:	0f b6 00             	movzbl (%rax),%eax
ffffffffffe028e4:	0f b6 d0             	movzbl %al,%edx
ffffffffffe028e7:	8b 45 d4             	mov    -0x2c(%rbp),%eax
ffffffffffe028ea:	be 01 00 00 00       	mov    $0x1,%esi
ffffffffffe028ef:	89 c1                	mov    %eax,%ecx
ffffffffffe028f1:	d3 e6                	shl    %cl,%esi
ffffffffffe028f3:	89 f0                	mov    %esi,%eax
ffffffffffe028f5:	21 d0                	and    %edx,%eax
ffffffffffe028f7:	89 45 d0             	mov    %eax,-0x30(%rbp)
ffffffffffe028fa:	48 8b 15 df 4f 00 00 	mov    0x4fdf(%rip),%rdx        # ffffffffffe078e0 <framebuf>
ffffffffffe02901:	8b 45 fc             	mov    -0x4(%rbp),%eax
ffffffffffe02904:	48 63 c8             	movslq %eax,%rcx
ffffffffffe02907:	8b 45 e8             	mov    -0x18(%rbp),%eax
ffffffffffe0290a:	c1 e0 02             	shl    $0x2,%eax
ffffffffffe0290d:	48 98                	cltq   
ffffffffffe0290f:	48 01 c8             	add    %rcx,%rax
ffffffffffe02912:	48 01 d0             	add    %rdx,%rax
ffffffffffe02915:	48 89 45 c8          	mov    %rax,-0x38(%rbp)
ffffffffffe02919:	83 7d d0 00          	cmpl   $0x0,-0x30(%rbp)
ffffffffffe0291d:	74 0e                	je     ffffffffffe0292d <fb_putchar+0x155>
ffffffffffe0291f:	8b 15 f3 4f 00 00    	mov    0x4ff3(%rip),%edx        # ffffffffffe07918 <framebuf+0x38>
ffffffffffe02925:	48 8b 45 c8          	mov    -0x38(%rbp),%rax
ffffffffffe02929:	89 10                	mov    %edx,(%rax)
ffffffffffe0292b:	eb 0a                	jmp    ffffffffffe02937 <fb_putchar+0x15f>
ffffffffffe0292d:	48 8b 45 c8          	mov    -0x38(%rbp),%rax
ffffffffffe02931:	c7 00 00 00 00 00    	movl   $0x0,(%rax)
ffffffffffe02937:	83 45 e8 01          	addl   $0x1,-0x18(%rbp)
ffffffffffe0293b:	48 8b 45 e0          	mov    -0x20(%rbp),%rax
ffffffffffe0293f:	8b 50 1c             	mov    0x1c(%rax),%edx
ffffffffffe02942:	8b 45 e8             	mov    -0x18(%rbp),%eax
ffffffffffe02945:	39 c2                	cmp    %eax,%edx
ffffffffffe02947:	0f 87 5c ff ff ff    	ja     ffffffffffe028a9 <fb_putchar+0xd1>
ffffffffffe0294d:	8b 05 a5 4f 00 00    	mov    0x4fa5(%rip),%eax        # ffffffffffe078f8 <framebuf+0x18>
ffffffffffe02953:	01 45 fc             	add    %eax,-0x4(%rbp)
ffffffffffe02956:	8b 45 dc             	mov    -0x24(%rbp),%eax
ffffffffffe02959:	48 98                	cltq   
ffffffffffe0295b:	48 01 45 f0          	add    %rax,-0x10(%rbp)
ffffffffffe0295f:	83 45 ec 01          	addl   $0x1,-0x14(%rbp)
ffffffffffe02963:	48 8b 45 e0          	mov    -0x20(%rbp),%rax
ffffffffffe02967:	8b 50 18             	mov    0x18(%rax),%edx
ffffffffffe0296a:	8b 45 ec             	mov    -0x14(%rbp),%eax
ffffffffffe0296d:	39 c2                	cmp    %eax,%edx
ffffffffffe0296f:	0f 87 28 ff ff ff    	ja     ffffffffffe0289d <fb_putchar+0xc5>
ffffffffffe02975:	b8 00 00 00 00       	mov    $0x0,%eax
ffffffffffe0297a:	e8 6e fd ff ff       	callq  ffffffffffe026ed <fb_advance>
ffffffffffe0297f:	c9                   	leaveq 
ffffffffffe02980:	c3                   	retq   

ffffffffffe02981 <init_console>:
ffffffffffe02981:	55                   	push   %rbp
ffffffffffe02982:	48 89 e5             	mov    %rsp,%rbp
ffffffffffe02985:	b8 00 00 00 00       	mov    $0x0,%eax
ffffffffffe0298a:	e8 33 fb ff ff       	callq  ffffffffffe024c2 <init_serial>
ffffffffffe0298f:	b8 00 00 00 00       	mov    $0x0,%eax
ffffffffffe02994:	e8 84 fd ff ff       	callq  ffffffffffe0271d <init_fb>
ffffffffffe02999:	90                   	nop
ffffffffffe0299a:	5d                   	pop    %rbp
ffffffffffe0299b:	c3                   	retq   

ffffffffffe0299c <putchar>:
ffffffffffe0299c:	55                   	push   %rbp
ffffffffffe0299d:	48 89 e5             	mov    %rsp,%rbp
ffffffffffe029a0:	48 83 ec 08          	sub    $0x8,%rsp
ffffffffffe029a4:	89 f8                	mov    %edi,%eax
ffffffffffe029a6:	88 45 fc             	mov    %al,-0x4(%rbp)
ffffffffffe029a9:	0f be 45 fc          	movsbl -0x4(%rbp),%eax
ffffffffffe029ad:	89 c7                	mov    %eax,%edi
ffffffffffe029af:	e8 30 fc ff ff       	callq  ffffffffffe025e4 <write_serial>
ffffffffffe029b4:	0f be 45 fc          	movsbl -0x4(%rbp),%eax
ffffffffffe029b8:	89 c7                	mov    %eax,%edi
ffffffffffe029ba:	e8 19 fe ff ff       	callq  ffffffffffe027d8 <fb_putchar>
ffffffffffe029bf:	0f be 45 fc          	movsbl -0x4(%rbp),%eax
ffffffffffe029c3:	c9                   	leaveq 
ffffffffffe029c4:	c3                   	retq   

ffffffffffe029c5 <puts>:
ffffffffffe029c5:	55                   	push   %rbp
ffffffffffe029c6:	48 89 e5             	mov    %rsp,%rbp
ffffffffffe029c9:	48 83 ec 18          	sub    $0x18,%rsp
ffffffffffe029cd:	48 89 7d e8          	mov    %rdi,-0x18(%rbp)
ffffffffffe029d1:	eb 10                	jmp    ffffffffffe029e3 <puts+0x1e>
ffffffffffe029d3:	0f be 45 ff          	movsbl -0x1(%rbp),%eax
ffffffffffe029d7:	89 c7                	mov    %eax,%edi
ffffffffffe029d9:	e8 be ff ff ff       	callq  ffffffffffe0299c <putchar>
ffffffffffe029de:	48 83 45 e8 01       	addq   $0x1,-0x18(%rbp)
ffffffffffe029e3:	48 8b 45 e8          	mov    -0x18(%rbp),%rax
ffffffffffe029e7:	0f b6 00             	movzbl (%rax),%eax
ffffffffffe029ea:	88 45 ff             	mov    %al,-0x1(%rbp)
ffffffffffe029ed:	80 7d ff 00          	cmpb   $0x0,-0x1(%rbp)
ffffffffffe029f1:	75 e0                	jne    ffffffffffe029d3 <puts+0xe>
ffffffffffe029f3:	90                   	nop
ffffffffffe029f4:	90                   	nop
ffffffffffe029f5:	c9                   	leaveq 
ffffffffffe029f6:	c3                   	retq   

ffffffffffe029f7 <parse_number>:
ffffffffffe029f7:	55                   	push   %rbp
ffffffffffe029f8:	48 89 e5             	mov    %rsp,%rbp
ffffffffffe029fb:	48 83 ec 38          	sub    $0x38,%rsp
ffffffffffe029ff:	48 89 7d d8          	mov    %rdi,-0x28(%rbp)
ffffffffffe02a03:	48 89 75 d0          	mov    %rsi,-0x30(%rbp)
ffffffffffe02a07:	89 55 cc             	mov    %edx,-0x34(%rbp)
ffffffffffe02a0a:	48 c7 45 f8 00 00 00 	movq   $0x0,-0x8(%rbp)
ffffffffffe02a11:	00 
ffffffffffe02a12:	c7 45 f4 00 00 00 00 	movl   $0x0,-0xc(%rbp)
ffffffffffe02a19:	e9 85 00 00 00       	jmpq   ffffffffffe02aa3 <parse_number+0xac>
ffffffffffe02a1e:	8b 45 f4             	mov    -0xc(%rbp),%eax
ffffffffffe02a21:	48 63 d0             	movslq %eax,%rdx
ffffffffffe02a24:	48 8b 45 d8          	mov    -0x28(%rbp),%rax
ffffffffffe02a28:	48 01 d0             	add    %rdx,%rax
ffffffffffe02a2b:	0f b6 00             	movzbl (%rax),%eax
ffffffffffe02a2e:	88 45 ef             	mov    %al,-0x11(%rbp)
ffffffffffe02a31:	c7 45 f0 64 00 00 00 	movl   $0x64,-0x10(%rbp)
ffffffffffe02a38:	80 7d ef 2f          	cmpb   $0x2f,-0x11(%rbp)
ffffffffffe02a3c:	7e 12                	jle    ffffffffffe02a50 <parse_number+0x59>
ffffffffffe02a3e:	80 7d ef 39          	cmpb   $0x39,-0x11(%rbp)
ffffffffffe02a42:	7f 0c                	jg     ffffffffffe02a50 <parse_number+0x59>
ffffffffffe02a44:	0f be 45 ef          	movsbl -0x11(%rbp),%eax
ffffffffffe02a48:	83 e8 30             	sub    $0x30,%eax
ffffffffffe02a4b:	89 45 f0             	mov    %eax,-0x10(%rbp)
ffffffffffe02a4e:	eb 2e                	jmp    ffffffffffe02a7e <parse_number+0x87>
ffffffffffe02a50:	80 7d ef 60          	cmpb   $0x60,-0x11(%rbp)
ffffffffffe02a54:	7e 12                	jle    ffffffffffe02a68 <parse_number+0x71>
ffffffffffe02a56:	80 7d ef 66          	cmpb   $0x66,-0x11(%rbp)
ffffffffffe02a5a:	7f 0c                	jg     ffffffffffe02a68 <parse_number+0x71>
ffffffffffe02a5c:	0f be 45 ef          	movsbl -0x11(%rbp),%eax
ffffffffffe02a60:	83 e8 57             	sub    $0x57,%eax
ffffffffffe02a63:	89 45 f0             	mov    %eax,-0x10(%rbp)
ffffffffffe02a66:	eb 16                	jmp    ffffffffffe02a7e <parse_number+0x87>
ffffffffffe02a68:	80 7d ef 40          	cmpb   $0x40,-0x11(%rbp)
ffffffffffe02a6c:	7e 10                	jle    ffffffffffe02a7e <parse_number+0x87>
ffffffffffe02a6e:	80 7d ef 46          	cmpb   $0x46,-0x11(%rbp)
ffffffffffe02a72:	7f 0a                	jg     ffffffffffe02a7e <parse_number+0x87>
ffffffffffe02a74:	0f be 45 ef          	movsbl -0x11(%rbp),%eax
ffffffffffe02a78:	83 e8 37             	sub    $0x37,%eax
ffffffffffe02a7b:	89 45 f0             	mov    %eax,-0x10(%rbp)
ffffffffffe02a7e:	8b 45 f0             	mov    -0x10(%rbp),%eax
ffffffffffe02a81:	3b 45 cc             	cmp    -0x34(%rbp),%eax
ffffffffffe02a84:	7d 37                	jge    ffffffffffe02abd <parse_number+0xc6>
ffffffffffe02a86:	8b 45 cc             	mov    -0x34(%rbp),%eax
ffffffffffe02a89:	48 98                	cltq   
ffffffffffe02a8b:	48 0f af 45 f8       	imul   -0x8(%rbp),%rax
ffffffffffe02a90:	48 89 c2             	mov    %rax,%rdx
ffffffffffe02a93:	8b 45 f0             	mov    -0x10(%rbp),%eax
ffffffffffe02a96:	48 98                	cltq   
ffffffffffe02a98:	48 01 d0             	add    %rdx,%rax
ffffffffffe02a9b:	48 89 45 f8          	mov    %rax,-0x8(%rbp)
ffffffffffe02a9f:	83 45 f4 01          	addl   $0x1,-0xc(%rbp)
ffffffffffe02aa3:	8b 45 f4             	mov    -0xc(%rbp),%eax
ffffffffffe02aa6:	48 63 d0             	movslq %eax,%rdx
ffffffffffe02aa9:	48 8b 45 d8          	mov    -0x28(%rbp),%rax
ffffffffffe02aad:	48 01 d0             	add    %rdx,%rax
ffffffffffe02ab0:	0f b6 00             	movzbl (%rax),%eax
ffffffffffe02ab3:	84 c0                	test   %al,%al
ffffffffffe02ab5:	0f 85 63 ff ff ff    	jne    ffffffffffe02a1e <parse_number+0x27>
ffffffffffe02abb:	eb 01                	jmp    ffffffffffe02abe <parse_number+0xc7>
ffffffffffe02abd:	90                   	nop
ffffffffffe02abe:	48 8b 45 d0          	mov    -0x30(%rbp),%rax
ffffffffffe02ac2:	48 8b 55 f8          	mov    -0x8(%rbp),%rdx
ffffffffffe02ac6:	48 89 10             	mov    %rdx,(%rax)
ffffffffffe02ac9:	8b 45 f4             	mov    -0xc(%rbp),%eax
ffffffffffe02acc:	c9                   	leaveq 
ffffffffffe02acd:	c3                   	retq   

ffffffffffe02ace <fmt_string>:
ffffffffffe02ace:	55                   	push   %rbp
ffffffffffe02acf:	48 89 e5             	mov    %rsp,%rbp
ffffffffffe02ad2:	48 83 ec 30          	sub    $0x30,%rsp
ffffffffffe02ad6:	48 89 7d e8          	mov    %rdi,-0x18(%rbp)
ffffffffffe02ada:	48 89 75 e0          	mov    %rsi,-0x20(%rbp)
ffffffffffe02ade:	89 55 dc             	mov    %edx,-0x24(%rbp)
ffffffffffe02ae1:	89 4d d8             	mov    %ecx,-0x28(%rbp)
ffffffffffe02ae4:	44 89 c0             	mov    %r8d,%eax
ffffffffffe02ae7:	44 89 4d d0          	mov    %r9d,-0x30(%rbp)
ffffffffffe02aeb:	88 45 d4             	mov    %al,-0x2c(%rbp)
ffffffffffe02aee:	83 7d d0 00          	cmpl   $0x0,-0x30(%rbp)
ffffffffffe02af2:	74 2c                	je     ffffffffffe02b20 <fmt_string+0x52>
ffffffffffe02af4:	8b 45 dc             	mov    -0x24(%rbp),%eax
ffffffffffe02af7:	89 45 fc             	mov    %eax,-0x4(%rbp)
ffffffffffe02afa:	eb 1c                	jmp    ffffffffffe02b18 <fmt_string+0x4a>
ffffffffffe02afc:	48 8b 45 e8          	mov    -0x18(%rbp),%rax
ffffffffffe02b00:	48 8b 00             	mov    (%rax),%rax
ffffffffffe02b03:	48 8d 48 01          	lea    0x1(%rax),%rcx
ffffffffffe02b07:	48 8b 55 e8          	mov    -0x18(%rbp),%rdx
ffffffffffe02b0b:	48 89 0a             	mov    %rcx,(%rdx)
ffffffffffe02b0e:	0f b6 55 d4          	movzbl -0x2c(%rbp),%edx
ffffffffffe02b12:	88 10                	mov    %dl,(%rax)
ffffffffffe02b14:	83 45 fc 01          	addl   $0x1,-0x4(%rbp)
ffffffffffe02b18:	8b 45 fc             	mov    -0x4(%rbp),%eax
ffffffffffe02b1b:	3b 45 d8             	cmp    -0x28(%rbp),%eax
ffffffffffe02b1e:	7c dc                	jl     ffffffffffe02afc <fmt_string+0x2e>
ffffffffffe02b20:	c7 45 f8 00 00 00 00 	movl   $0x0,-0x8(%rbp)
ffffffffffe02b27:	eb 29                	jmp    ffffffffffe02b52 <fmt_string+0x84>
ffffffffffe02b29:	8b 45 f8             	mov    -0x8(%rbp),%eax
ffffffffffe02b2c:	48 63 d0             	movslq %eax,%rdx
ffffffffffe02b2f:	48 8b 45 e0          	mov    -0x20(%rbp),%rax
ffffffffffe02b33:	48 8d 34 02          	lea    (%rdx,%rax,1),%rsi
ffffffffffe02b37:	48 8b 45 e8          	mov    -0x18(%rbp),%rax
ffffffffffe02b3b:	48 8b 00             	mov    (%rax),%rax
ffffffffffe02b3e:	48 8d 48 01          	lea    0x1(%rax),%rcx
ffffffffffe02b42:	48 8b 55 e8          	mov    -0x18(%rbp),%rdx
ffffffffffe02b46:	48 89 0a             	mov    %rcx,(%rdx)
ffffffffffe02b49:	0f b6 16             	movzbl (%rsi),%edx
ffffffffffe02b4c:	88 10                	mov    %dl,(%rax)
ffffffffffe02b4e:	83 45 f8 01          	addl   $0x1,-0x8(%rbp)
ffffffffffe02b52:	8b 45 f8             	mov    -0x8(%rbp),%eax
ffffffffffe02b55:	3b 45 dc             	cmp    -0x24(%rbp),%eax
ffffffffffe02b58:	7c cf                	jl     ffffffffffe02b29 <fmt_string+0x5b>
ffffffffffe02b5a:	83 7d d0 00          	cmpl   $0x0,-0x30(%rbp)
ffffffffffe02b5e:	75 2c                	jne    ffffffffffe02b8c <fmt_string+0xbe>
ffffffffffe02b60:	8b 45 dc             	mov    -0x24(%rbp),%eax
ffffffffffe02b63:	89 45 f4             	mov    %eax,-0xc(%rbp)
ffffffffffe02b66:	eb 1c                	jmp    ffffffffffe02b84 <fmt_string+0xb6>
ffffffffffe02b68:	48 8b 45 e8          	mov    -0x18(%rbp),%rax
ffffffffffe02b6c:	48 8b 00             	mov    (%rax),%rax
ffffffffffe02b6f:	48 8d 48 01          	lea    0x1(%rax),%rcx
ffffffffffe02b73:	48 8b 55 e8          	mov    -0x18(%rbp),%rdx
ffffffffffe02b77:	48 89 0a             	mov    %rcx,(%rdx)
ffffffffffe02b7a:	0f b6 55 d4          	movzbl -0x2c(%rbp),%edx
ffffffffffe02b7e:	88 10                	mov    %dl,(%rax)
ffffffffffe02b80:	83 45 f4 01          	addl   $0x1,-0xc(%rbp)
ffffffffffe02b84:	8b 45 f4             	mov    -0xc(%rbp),%eax
ffffffffffe02b87:	3b 45 d8             	cmp    -0x28(%rbp),%eax
ffffffffffe02b8a:	7c dc                	jl     ffffffffffe02b68 <fmt_string+0x9a>
ffffffffffe02b8c:	90                   	nop
ffffffffffe02b8d:	c9                   	leaveq 
ffffffffffe02b8e:	c3                   	retq   

ffffffffffe02b8f <fmt_number>:
ffffffffffe02b8f:	55                   	push   %rbp
ffffffffffe02b90:	48 89 e5             	mov    %rsp,%rbp
ffffffffffe02b93:	48 83 ec 48          	sub    $0x48,%rsp
ffffffffffe02b97:	48 89 7d d8          	mov    %rdi,-0x28(%rbp)
ffffffffffe02b9b:	48 89 75 d0          	mov    %rsi,-0x30(%rbp)
ffffffffffe02b9f:	89 55 cc             	mov    %edx,-0x34(%rbp)
ffffffffffe02ba2:	89 4d c8             	mov    %ecx,-0x38(%rbp)
ffffffffffe02ba5:	44 89 c2             	mov    %r8d,%edx
ffffffffffe02ba8:	44 89 4d c0          	mov    %r9d,-0x40(%rbp)
ffffffffffe02bac:	8b 45 10             	mov    0x10(%rbp),%eax
ffffffffffe02baf:	88 55 c4             	mov    %dl,-0x3c(%rbp)
ffffffffffe02bb2:	88 45 bc             	mov    %al,-0x44(%rbp)
ffffffffffe02bb5:	c7 45 fc 00 00 00 00 	movl   $0x0,-0x4(%rbp)
ffffffffffe02bbc:	83 7d 18 00          	cmpl   $0x0,0x18(%rbp)
ffffffffffe02bc0:	74 2b                	je     ffffffffffe02bed <fmt_number+0x5e>
ffffffffffe02bc2:	48 8b 45 d0          	mov    -0x30(%rbp),%rax
ffffffffffe02bc6:	48 85 c0             	test   %rax,%rax
ffffffffffe02bc9:	79 22                	jns    ffffffffffe02bed <fmt_number+0x5e>
ffffffffffe02bcb:	48 8b 45 d8          	mov    -0x28(%rbp),%rax
ffffffffffe02bcf:	48 8b 08             	mov    (%rax),%rcx
ffffffffffe02bd2:	8b 45 fc             	mov    -0x4(%rbp),%eax
ffffffffffe02bd5:	8d 50 01             	lea    0x1(%rax),%edx
ffffffffffe02bd8:	89 55 fc             	mov    %edx,-0x4(%rbp)
ffffffffffe02bdb:	48 98                	cltq   
ffffffffffe02bdd:	48 01 c8             	add    %rcx,%rax
ffffffffffe02be0:	c6 00 2d             	movb   $0x2d,(%rax)
ffffffffffe02be3:	83 6d c8 01          	subl   $0x1,-0x38(%rbp)
ffffffffffe02be7:	48 f7 5d d0          	negq   -0x30(%rbp)
ffffffffffe02beb:	eb 26                	jmp    ffffffffffe02c13 <fmt_number+0x84>
ffffffffffe02bed:	80 7d bc 00          	cmpb   $0x0,-0x44(%rbp)
ffffffffffe02bf1:	74 20                	je     ffffffffffe02c13 <fmt_number+0x84>
ffffffffffe02bf3:	48 8b 45 d8          	mov    -0x28(%rbp),%rax
ffffffffffe02bf7:	48 8b 08             	mov    (%rax),%rcx
ffffffffffe02bfa:	8b 45 fc             	mov    -0x4(%rbp),%eax
ffffffffffe02bfd:	8d 50 01             	lea    0x1(%rax),%edx
ffffffffffe02c00:	89 55 fc             	mov    %edx,-0x4(%rbp)
ffffffffffe02c03:	48 98                	cltq   
ffffffffffe02c05:	48 8d 14 01          	lea    (%rcx,%rax,1),%rdx
ffffffffffe02c09:	0f b6 45 bc          	movzbl -0x44(%rbp),%eax
ffffffffffe02c0d:	88 02                	mov    %al,(%rdx)
ffffffffffe02c0f:	83 6d c8 01          	subl   $0x1,-0x38(%rbp)
ffffffffffe02c13:	c7 45 f8 00 00 00 00 	movl   $0x0,-0x8(%rbp)
ffffffffffe02c1a:	48 83 7d d0 00       	cmpq   $0x0,-0x30(%rbp)
ffffffffffe02c1f:	75 09                	jne    ffffffffffe02c2a <fmt_number+0x9b>
ffffffffffe02c21:	c7 45 f8 01 00 00 00 	movl   $0x1,-0x8(%rbp)
ffffffffffe02c28:	eb 2b                	jmp    ffffffffffe02c55 <fmt_number+0xc6>
ffffffffffe02c2a:	48 8b 45 d0          	mov    -0x30(%rbp),%rax
ffffffffffe02c2e:	48 89 45 f0          	mov    %rax,-0x10(%rbp)
ffffffffffe02c32:	eb 1a                	jmp    ffffffffffe02c4e <fmt_number+0xbf>
ffffffffffe02c34:	83 45 f8 01          	addl   $0x1,-0x8(%rbp)
ffffffffffe02c38:	8b 45 cc             	mov    -0x34(%rbp),%eax
ffffffffffe02c3b:	48 63 f0             	movslq %eax,%rsi
ffffffffffe02c3e:	48 8b 45 f0          	mov    -0x10(%rbp),%rax
ffffffffffe02c42:	ba 00 00 00 00       	mov    $0x0,%edx
ffffffffffe02c47:	48 f7 f6             	div    %rsi
ffffffffffe02c4a:	48 89 45 f0          	mov    %rax,-0x10(%rbp)
ffffffffffe02c4e:	48 83 7d f0 00       	cmpq   $0x0,-0x10(%rbp)
ffffffffffe02c53:	75 df                	jne    ffffffffffe02c34 <fmt_number+0xa5>
ffffffffffe02c55:	8b 45 f8             	mov    -0x8(%rbp),%eax
ffffffffffe02c58:	29 45 c8             	sub    %eax,-0x38(%rbp)
ffffffffffe02c5b:	83 7d c0 00          	cmpl   $0x0,-0x40(%rbp)
ffffffffffe02c5f:	74 31                	je     ffffffffffe02c92 <fmt_number+0x103>
ffffffffffe02c61:	c7 45 ec 00 00 00 00 	movl   $0x0,-0x14(%rbp)
ffffffffffe02c68:	eb 20                	jmp    ffffffffffe02c8a <fmt_number+0xfb>
ffffffffffe02c6a:	48 8b 45 d8          	mov    -0x28(%rbp),%rax
ffffffffffe02c6e:	48 8b 08             	mov    (%rax),%rcx
ffffffffffe02c71:	8b 45 fc             	mov    -0x4(%rbp),%eax
ffffffffffe02c74:	8d 50 01             	lea    0x1(%rax),%edx
ffffffffffe02c77:	89 55 fc             	mov    %edx,-0x4(%rbp)
ffffffffffe02c7a:	48 98                	cltq   
ffffffffffe02c7c:	48 8d 14 01          	lea    (%rcx,%rax,1),%rdx
ffffffffffe02c80:	0f b6 45 c4          	movzbl -0x3c(%rbp),%eax
ffffffffffe02c84:	88 02                	mov    %al,(%rdx)
ffffffffffe02c86:	83 45 ec 01          	addl   $0x1,-0x14(%rbp)
ffffffffffe02c8a:	8b 45 ec             	mov    -0x14(%rbp),%eax
ffffffffffe02c8d:	3b 45 c8             	cmp    -0x38(%rbp),%eax
ffffffffffe02c90:	7c d8                	jl     ffffffffffe02c6a <fmt_number+0xdb>
ffffffffffe02c92:	8b 45 f8             	mov    -0x8(%rbp),%eax
ffffffffffe02c95:	01 45 fc             	add    %eax,-0x4(%rbp)
ffffffffffe02c98:	48 83 7d d0 00       	cmpq   $0x0,-0x30(%rbp)
ffffffffffe02c9d:	75 16                	jne    ffffffffffe02cb5 <fmt_number+0x126>
ffffffffffe02c9f:	48 8b 45 d8          	mov    -0x28(%rbp),%rax
ffffffffffe02ca3:	48 8b 10             	mov    (%rax),%rdx
ffffffffffe02ca6:	8b 45 fc             	mov    -0x4(%rbp),%eax
ffffffffffe02ca9:	48 98                	cltq   
ffffffffffe02cab:	48 83 e8 01          	sub    $0x1,%rax
ffffffffffe02caf:	48 01 d0             	add    %rdx,%rax
ffffffffffe02cb2:	c6 00 30             	movb   $0x30,(%rax)
ffffffffffe02cb5:	c7 45 e8 00 00 00 00 	movl   $0x0,-0x18(%rbp)
ffffffffffe02cbc:	e9 a5 00 00 00       	jmpq   ffffffffffe02d66 <fmt_number+0x1d7>
ffffffffffe02cc1:	8b 45 cc             	mov    -0x34(%rbp),%eax
ffffffffffe02cc4:	48 63 c8             	movslq %eax,%rcx
ffffffffffe02cc7:	48 8b 45 d0          	mov    -0x30(%rbp),%rax
ffffffffffe02ccb:	ba 00 00 00 00       	mov    $0x0,%edx
ffffffffffe02cd0:	48 f7 f1             	div    %rcx
ffffffffffe02cd3:	48 89 d0             	mov    %rdx,%rax
ffffffffffe02cd6:	88 45 e3             	mov    %al,-0x1d(%rbp)
ffffffffffe02cd9:	80 7d e3 09          	cmpb   $0x9,-0x1d(%rbp)
ffffffffffe02cdd:	7f 23                	jg     ffffffffffe02d02 <fmt_number+0x173>
ffffffffffe02cdf:	0f b6 45 e3          	movzbl -0x1d(%rbp),%eax
ffffffffffe02ce3:	8d 48 30             	lea    0x30(%rax),%ecx
ffffffffffe02ce6:	48 8b 45 d8          	mov    -0x28(%rbp),%rax
ffffffffffe02cea:	48 8b 10             	mov    (%rax),%rdx
ffffffffffe02ced:	8b 45 fc             	mov    -0x4(%rbp),%eax
ffffffffffe02cf0:	2b 45 e8             	sub    -0x18(%rbp),%eax
ffffffffffe02cf3:	48 98                	cltq   
ffffffffffe02cf5:	48 83 e8 01          	sub    $0x1,%rax
ffffffffffe02cf9:	48 01 d0             	add    %rdx,%rax
ffffffffffe02cfc:	89 ca                	mov    %ecx,%edx
ffffffffffe02cfe:	88 10                	mov    %dl,(%rax)
ffffffffffe02d00:	eb 4a                	jmp    ffffffffffe02d4c <fmt_number+0x1bd>
ffffffffffe02d02:	83 7d 20 00          	cmpl   $0x0,0x20(%rbp)
ffffffffffe02d06:	74 23                	je     ffffffffffe02d2b <fmt_number+0x19c>
ffffffffffe02d08:	0f b6 45 e3          	movzbl -0x1d(%rbp),%eax
ffffffffffe02d0c:	8d 48 37             	lea    0x37(%rax),%ecx
ffffffffffe02d0f:	48 8b 45 d8          	mov    -0x28(%rbp),%rax
ffffffffffe02d13:	48 8b 10             	mov    (%rax),%rdx
ffffffffffe02d16:	8b 45 fc             	mov    -0x4(%rbp),%eax
ffffffffffe02d19:	2b 45 e8             	sub    -0x18(%rbp),%eax
ffffffffffe02d1c:	48 98                	cltq   
ffffffffffe02d1e:	48 83 e8 01          	sub    $0x1,%rax
ffffffffffe02d22:	48 01 d0             	add    %rdx,%rax
ffffffffffe02d25:	89 ca                	mov    %ecx,%edx
ffffffffffe02d27:	88 10                	mov    %dl,(%rax)
ffffffffffe02d29:	eb 21                	jmp    ffffffffffe02d4c <fmt_number+0x1bd>
ffffffffffe02d2b:	0f b6 45 e3          	movzbl -0x1d(%rbp),%eax
ffffffffffe02d2f:	8d 48 57             	lea    0x57(%rax),%ecx
ffffffffffe02d32:	48 8b 45 d8          	mov    -0x28(%rbp),%rax
ffffffffffe02d36:	48 8b 10             	mov    (%rax),%rdx
ffffffffffe02d39:	8b 45 fc             	mov    -0x4(%rbp),%eax
ffffffffffe02d3c:	2b 45 e8             	sub    -0x18(%rbp),%eax
ffffffffffe02d3f:	48 98                	cltq   
ffffffffffe02d41:	48 83 e8 01          	sub    $0x1,%rax
ffffffffffe02d45:	48 01 d0             	add    %rdx,%rax
ffffffffffe02d48:	89 ca                	mov    %ecx,%edx
ffffffffffe02d4a:	88 10                	mov    %dl,(%rax)
ffffffffffe02d4c:	8b 45 cc             	mov    -0x34(%rbp),%eax
ffffffffffe02d4f:	48 63 f8             	movslq %eax,%rdi
ffffffffffe02d52:	48 8b 45 d0          	mov    -0x30(%rbp),%rax
ffffffffffe02d56:	ba 00 00 00 00       	mov    $0x0,%edx
ffffffffffe02d5b:	48 f7 f7             	div    %rdi
ffffffffffe02d5e:	48 89 45 d0          	mov    %rax,-0x30(%rbp)
ffffffffffe02d62:	83 45 e8 01          	addl   $0x1,-0x18(%rbp)
ffffffffffe02d66:	48 83 7d d0 00       	cmpq   $0x0,-0x30(%rbp)
ffffffffffe02d6b:	0f 85 50 ff ff ff    	jne    ffffffffffe02cc1 <fmt_number+0x132>
ffffffffffe02d71:	83 7d c0 00          	cmpl   $0x0,-0x40(%rbp)
ffffffffffe02d75:	75 31                	jne    ffffffffffe02da8 <fmt_number+0x219>
ffffffffffe02d77:	c7 45 e4 00 00 00 00 	movl   $0x0,-0x1c(%rbp)
ffffffffffe02d7e:	eb 20                	jmp    ffffffffffe02da0 <fmt_number+0x211>
ffffffffffe02d80:	48 8b 45 d8          	mov    -0x28(%rbp),%rax
ffffffffffe02d84:	48 8b 08             	mov    (%rax),%rcx
ffffffffffe02d87:	8b 45 fc             	mov    -0x4(%rbp),%eax
ffffffffffe02d8a:	8d 50 01             	lea    0x1(%rax),%edx
ffffffffffe02d8d:	89 55 fc             	mov    %edx,-0x4(%rbp)
ffffffffffe02d90:	48 98                	cltq   
ffffffffffe02d92:	48 8d 14 01          	lea    (%rcx,%rax,1),%rdx
ffffffffffe02d96:	0f b6 45 c4          	movzbl -0x3c(%rbp),%eax
ffffffffffe02d9a:	88 02                	mov    %al,(%rdx)
ffffffffffe02d9c:	83 45 e4 01          	addl   $0x1,-0x1c(%rbp)
ffffffffffe02da0:	8b 45 e4             	mov    -0x1c(%rbp),%eax
ffffffffffe02da3:	3b 45 c8             	cmp    -0x38(%rbp),%eax
ffffffffffe02da6:	7c d8                	jl     ffffffffffe02d80 <fmt_number+0x1f1>
ffffffffffe02da8:	48 8b 45 d8          	mov    -0x28(%rbp),%rax
ffffffffffe02dac:	48 8b 10             	mov    (%rax),%rdx
ffffffffffe02daf:	8b 45 fc             	mov    -0x4(%rbp),%eax
ffffffffffe02db2:	48 98                	cltq   
ffffffffffe02db4:	48 01 c2             	add    %rax,%rdx
ffffffffffe02db7:	48 8b 45 d8          	mov    -0x28(%rbp),%rax
ffffffffffe02dbb:	48 89 10             	mov    %rdx,(%rax)
ffffffffffe02dbe:	90                   	nop
ffffffffffe02dbf:	c9                   	leaveq 
ffffffffffe02dc0:	c3                   	retq   

ffffffffffe02dc1 <printf>:
ffffffffffe02dc1:	55                   	push   %rbp
ffffffffffe02dc2:	48 89 e5             	mov    %rsp,%rbp
ffffffffffe02dc5:	48 81 ec 30 01 00 00 	sub    $0x130,%rsp
ffffffffffe02dcc:	48 89 bd d8 fe ff ff 	mov    %rdi,-0x128(%rbp)
ffffffffffe02dd3:	48 89 b5 58 ff ff ff 	mov    %rsi,-0xa8(%rbp)
ffffffffffe02dda:	48 89 95 60 ff ff ff 	mov    %rdx,-0xa0(%rbp)
ffffffffffe02de1:	48 89 8d 68 ff ff ff 	mov    %rcx,-0x98(%rbp)
ffffffffffe02de8:	4c 89 85 70 ff ff ff 	mov    %r8,-0x90(%rbp)
ffffffffffe02def:	4c 89 8d 78 ff ff ff 	mov    %r9,-0x88(%rbp)
ffffffffffe02df6:	84 c0                	test   %al,%al
ffffffffffe02df8:	74 20                	je     ffffffffffe02e1a <printf+0x59>
ffffffffffe02dfa:	0f 29 45 80          	movaps %xmm0,-0x80(%rbp)
ffffffffffe02dfe:	0f 29 4d 90          	movaps %xmm1,-0x70(%rbp)
ffffffffffe02e02:	0f 29 55 a0          	movaps %xmm2,-0x60(%rbp)
ffffffffffe02e06:	0f 29 5d b0          	movaps %xmm3,-0x50(%rbp)
ffffffffffe02e0a:	0f 29 65 c0          	movaps %xmm4,-0x40(%rbp)
ffffffffffe02e0e:	0f 29 6d d0          	movaps %xmm5,-0x30(%rbp)
ffffffffffe02e12:	0f 29 75 e0          	movaps %xmm6,-0x20(%rbp)
ffffffffffe02e16:	0f 29 7d f0          	movaps %xmm7,-0x10(%rbp)
ffffffffffe02e1a:	48 8d 05 ff 4a 00 00 	lea    0x4aff(%rip),%rax        # ffffffffffe07920 <ibuf.0>
ffffffffffe02e21:	48 89 85 10 ff ff ff 	mov    %rax,-0xf0(%rbp)
ffffffffffe02e28:	c7 85 f8 fe ff ff 08 	movl   $0x8,-0x108(%rbp)
ffffffffffe02e2f:	00 00 00 
ffffffffffe02e32:	c7 85 fc fe ff ff 30 	movl   $0x30,-0x104(%rbp)
ffffffffffe02e39:	00 00 00 
ffffffffffe02e3c:	48 8d 45 10          	lea    0x10(%rbp),%rax
ffffffffffe02e40:	48 89 85 00 ff ff ff 	mov    %rax,-0x100(%rbp)
ffffffffffe02e47:	48 8d 85 50 ff ff ff 	lea    -0xb0(%rbp),%rax
ffffffffffe02e4e:	48 89 85 08 ff ff ff 	mov    %rax,-0xf8(%rbp)
ffffffffffe02e55:	e9 9d 0c 00 00       	jmpq   ffffffffffe03af7 <printf+0xd36>
ffffffffffe02e5a:	48 8b 85 d8 fe ff ff 	mov    -0x128(%rbp),%rax
ffffffffffe02e61:	0f b6 00             	movzbl (%rax),%eax
ffffffffffe02e64:	3c 25                	cmp    $0x25,%al
ffffffffffe02e66:	74 23                	je     ffffffffffe02e8b <printf+0xca>
ffffffffffe02e68:	48 8b 85 10 ff ff ff 	mov    -0xf0(%rbp),%rax
ffffffffffe02e6f:	48 8d 50 01          	lea    0x1(%rax),%rdx
ffffffffffe02e73:	48 89 95 10 ff ff ff 	mov    %rdx,-0xf0(%rbp)
ffffffffffe02e7a:	48 8b 95 d8 fe ff ff 	mov    -0x128(%rbp),%rdx
ffffffffffe02e81:	0f b6 12             	movzbl (%rdx),%edx
ffffffffffe02e84:	88 10                	mov    %dl,(%rax)
ffffffffffe02e86:	e9 64 0c 00 00       	jmpq   ffffffffffe03aef <printf+0xd2e>
ffffffffffe02e8b:	48 8b 85 d8 fe ff ff 	mov    -0x128(%rbp),%rax
ffffffffffe02e92:	48 8d 50 01          	lea    0x1(%rax),%rdx
ffffffffffe02e96:	48 89 95 d8 fe ff ff 	mov    %rdx,-0x128(%rbp)
ffffffffffe02e9d:	0f b6 00             	movzbl (%rax),%eax
ffffffffffe02ea0:	84 c0                	test   %al,%al
ffffffffffe02ea2:	0f 84 63 0c 00 00    	je     ffffffffffe03b0b <printf+0xd4a>
ffffffffffe02ea8:	48 8b 85 d8 fe ff ff 	mov    -0x128(%rbp),%rax
ffffffffffe02eaf:	0f b6 00             	movzbl (%rax),%eax
ffffffffffe02eb2:	3c 25                	cmp    $0x25,%al
ffffffffffe02eb4:	75 23                	jne    ffffffffffe02ed9 <printf+0x118>
ffffffffffe02eb6:	48 8b 85 10 ff ff ff 	mov    -0xf0(%rbp),%rax
ffffffffffe02ebd:	48 8d 50 01          	lea    0x1(%rax),%rdx
ffffffffffe02ec1:	48 89 95 10 ff ff ff 	mov    %rdx,-0xf0(%rbp)
ffffffffffe02ec8:	48 8b 95 d8 fe ff ff 	mov    -0x128(%rbp),%rdx
ffffffffffe02ecf:	0f b6 12             	movzbl (%rdx),%edx
ffffffffffe02ed2:	88 10                	mov    %dl,(%rax)
ffffffffffe02ed4:	e9 16 0c 00 00       	jmpq   ffffffffffe03aef <printf+0xd2e>
ffffffffffe02ed9:	c6 85 4f ff ff ff 00 	movb   $0x0,-0xb1(%rbp)
ffffffffffe02ee0:	c6 85 4e ff ff ff 20 	movb   $0x20,-0xb2(%rbp)
ffffffffffe02ee7:	c7 85 48 ff ff ff 01 	movl   $0x1,-0xb8(%rbp)
ffffffffffe02eee:	00 00 00 
ffffffffffe02ef1:	c7 85 44 ff ff ff 00 	movl   $0x0,-0xbc(%rbp)
ffffffffffe02ef8:	00 00 00 
ffffffffffe02efb:	48 c7 85 f0 fe ff ff 	movq   $0x0,-0x110(%rbp)
ffffffffffe02f02:	00 00 00 00 
ffffffffffe02f06:	48 c7 85 e8 fe ff ff 	movq   $0x0,-0x118(%rbp)
ffffffffffe02f0d:	00 00 00 00 
ffffffffffe02f11:	c7 85 40 ff ff ff 02 	movl   $0x2,-0xc0(%rbp)
ffffffffffe02f18:	00 00 00 
ffffffffffe02f1b:	48 8b 85 d8 fe ff ff 	mov    -0x128(%rbp),%rax
ffffffffffe02f22:	0f b6 00             	movzbl (%rax),%eax
ffffffffffe02f25:	0f be c0             	movsbl %al,%eax
ffffffffffe02f28:	83 e8 20             	sub    $0x20,%eax
ffffffffffe02f2b:	83 f8 10             	cmp    $0x10,%eax
ffffffffffe02f2e:	77 78                	ja     ffffffffffe02fa8 <printf+0x1e7>
ffffffffffe02f30:	89 c0                	mov    %eax,%eax
ffffffffffe02f32:	48 8d 14 85 00 00 00 	lea    0x0(,%rax,4),%rdx
ffffffffffe02f39:	00 
ffffffffffe02f3a:	48 8d 05 97 37 00 00 	lea    0x3797(%rip),%rax        # ffffffffffe066d8 <set_timeslice_len+0x45>
ffffffffffe02f41:	8b 04 02             	mov    (%rdx,%rax,1),%eax
ffffffffffe02f44:	48 98                	cltq   
ffffffffffe02f46:	48 8d 15 8b 37 00 00 	lea    0x378b(%rip),%rdx        # ffffffffffe066d8 <set_timeslice_len+0x45>
ffffffffffe02f4d:	48 01 d0             	add    %rdx,%rax
ffffffffffe02f50:	ff e0                	jmpq   *%rax
ffffffffffe02f52:	c7 85 48 ff ff ff 00 	movl   $0x0,-0xb8(%rbp)
ffffffffffe02f59:	00 00 00 
ffffffffffe02f5c:	eb 28                	jmp    ffffffffffe02f86 <printf+0x1c5>
ffffffffffe02f5e:	c6 85 4f ff ff ff 2b 	movb   $0x2b,-0xb1(%rbp)
ffffffffffe02f65:	eb 1f                	jmp    ffffffffffe02f86 <printf+0x1c5>
ffffffffffe02f67:	c6 85 4f ff ff ff 20 	movb   $0x20,-0xb1(%rbp)
ffffffffffe02f6e:	eb 16                	jmp    ffffffffffe02f86 <printf+0x1c5>
ffffffffffe02f70:	c6 85 4e ff ff ff 30 	movb   $0x30,-0xb2(%rbp)
ffffffffffe02f77:	eb 0d                	jmp    ffffffffffe02f86 <printf+0x1c5>
ffffffffffe02f79:	c7 85 44 ff ff ff 01 	movl   $0x1,-0xbc(%rbp)
ffffffffffe02f80:	00 00 00 
ffffffffffe02f83:	eb 01                	jmp    ffffffffffe02f86 <printf+0x1c5>
ffffffffffe02f85:	90                   	nop
ffffffffffe02f86:	48 8b 85 d8 fe ff ff 	mov    -0x128(%rbp),%rax
ffffffffffe02f8d:	48 8d 50 01          	lea    0x1(%rax),%rdx
ffffffffffe02f91:	48 89 95 d8 fe ff ff 	mov    %rdx,-0x128(%rbp)
ffffffffffe02f98:	0f b6 00             	movzbl (%rax),%eax
ffffffffffe02f9b:	84 c0                	test   %al,%al
ffffffffffe02f9d:	0f 84 6b 0b 00 00    	je     ffffffffffe03b0e <printf+0xd4d>
ffffffffffe02fa3:	e9 73 ff ff ff       	jmpq   ffffffffffe02f1b <printf+0x15a>
ffffffffffe02fa8:	90                   	nop
ffffffffffe02fa9:	48 8b 85 d8 fe ff ff 	mov    -0x128(%rbp),%rax
ffffffffffe02fb0:	0f b6 00             	movzbl (%rax),%eax
ffffffffffe02fb3:	3c 2a                	cmp    $0x2a,%al
ffffffffffe02fb5:	75 69                	jne    ffffffffffe03020 <printf+0x25f>
ffffffffffe02fb7:	8b 85 f8 fe ff ff    	mov    -0x108(%rbp),%eax
ffffffffffe02fbd:	83 f8 2f             	cmp    $0x2f,%eax
ffffffffffe02fc0:	77 23                	ja     ffffffffffe02fe5 <printf+0x224>
ffffffffffe02fc2:	48 8b 85 08 ff ff ff 	mov    -0xf8(%rbp),%rax
ffffffffffe02fc9:	8b 95 f8 fe ff ff    	mov    -0x108(%rbp),%edx
ffffffffffe02fcf:	89 d2                	mov    %edx,%edx
ffffffffffe02fd1:	48 01 d0             	add    %rdx,%rax
ffffffffffe02fd4:	8b 95 f8 fe ff ff    	mov    -0x108(%rbp),%edx
ffffffffffe02fda:	83 c2 08             	add    $0x8,%edx
ffffffffffe02fdd:	89 95 f8 fe ff ff    	mov    %edx,-0x108(%rbp)
ffffffffffe02fe3:	eb 12                	jmp    ffffffffffe02ff7 <printf+0x236>
ffffffffffe02fe5:	48 8b 85 00 ff ff ff 	mov    -0x100(%rbp),%rax
ffffffffffe02fec:	48 8d 50 08          	lea    0x8(%rax),%rdx
ffffffffffe02ff0:	48 89 95 00 ff ff ff 	mov    %rdx,-0x100(%rbp)
ffffffffffe02ff7:	8b 00                	mov    (%rax),%eax
ffffffffffe02ff9:	48 98                	cltq   
ffffffffffe02ffb:	48 89 85 f0 fe ff ff 	mov    %rax,-0x110(%rbp)
ffffffffffe03002:	48 8b 85 d8 fe ff ff 	mov    -0x128(%rbp),%rax
ffffffffffe03009:	48 8d 50 01          	lea    0x1(%rax),%rdx
ffffffffffe0300d:	48 89 95 d8 fe ff ff 	mov    %rdx,-0x128(%rbp)
ffffffffffe03014:	0f b6 00             	movzbl (%rax),%eax
ffffffffffe03017:	84 c0                	test   %al,%al
ffffffffffe03019:	75 3e                	jne    ffffffffffe03059 <printf+0x298>
ffffffffffe0301b:	e9 04 0b 00 00       	jmpq   ffffffffffe03b24 <printf+0xd63>
ffffffffffe03020:	48 8d 8d f0 fe ff ff 	lea    -0x110(%rbp),%rcx
ffffffffffe03027:	48 8b 85 d8 fe ff ff 	mov    -0x128(%rbp),%rax
ffffffffffe0302e:	ba 0a 00 00 00       	mov    $0xa,%edx
ffffffffffe03033:	48 89 ce             	mov    %rcx,%rsi
ffffffffffe03036:	48 89 c7             	mov    %rax,%rdi
ffffffffffe03039:	e8 b9 f9 ff ff       	callq  ffffffffffe029f7 <parse_number>
ffffffffffe0303e:	48 98                	cltq   
ffffffffffe03040:	48 01 85 d8 fe ff ff 	add    %rax,-0x128(%rbp)
ffffffffffe03047:	48 8b 85 d8 fe ff ff 	mov    -0x128(%rbp),%rax
ffffffffffe0304e:	0f b6 00             	movzbl (%rax),%eax
ffffffffffe03051:	84 c0                	test   %al,%al
ffffffffffe03053:	0f 84 b8 0a 00 00    	je     ffffffffffe03b11 <printf+0xd50>
ffffffffffe03059:	48 8b 85 d8 fe ff ff 	mov    -0x128(%rbp),%rax
ffffffffffe03060:	0f b6 00             	movzbl (%rax),%eax
ffffffffffe03063:	3c 2e                	cmp    $0x2e,%al
ffffffffffe03065:	0f 85 9c 00 00 00    	jne    ffffffffffe03107 <printf+0x346>
ffffffffffe0306b:	48 83 85 d8 fe ff ff 	addq   $0x1,-0x128(%rbp)
ffffffffffe03072:	01 
ffffffffffe03073:	48 8b 85 d8 fe ff ff 	mov    -0x128(%rbp),%rax
ffffffffffe0307a:	0f b6 00             	movzbl (%rax),%eax
ffffffffffe0307d:	3c 2a                	cmp    $0x2a,%al
ffffffffffe0307f:	75 4d                	jne    ffffffffffe030ce <printf+0x30d>
ffffffffffe03081:	8b 85 f8 fe ff ff    	mov    -0x108(%rbp),%eax
ffffffffffe03087:	83 f8 2f             	cmp    $0x2f,%eax
ffffffffffe0308a:	77 23                	ja     ffffffffffe030af <printf+0x2ee>
ffffffffffe0308c:	48 8b 85 08 ff ff ff 	mov    -0xf8(%rbp),%rax
ffffffffffe03093:	8b 95 f8 fe ff ff    	mov    -0x108(%rbp),%edx
ffffffffffe03099:	89 d2                	mov    %edx,%edx
ffffffffffe0309b:	48 01 d0             	add    %rdx,%rax
ffffffffffe0309e:	8b 95 f8 fe ff ff    	mov    -0x108(%rbp),%edx
ffffffffffe030a4:	83 c2 08             	add    $0x8,%edx
ffffffffffe030a7:	89 95 f8 fe ff ff    	mov    %edx,-0x108(%rbp)
ffffffffffe030ad:	eb 12                	jmp    ffffffffffe030c1 <printf+0x300>
ffffffffffe030af:	48 8b 85 00 ff ff ff 	mov    -0x100(%rbp),%rax
ffffffffffe030b6:	48 8d 50 08          	lea    0x8(%rax),%rdx
ffffffffffe030ba:	48 89 95 00 ff ff ff 	mov    %rdx,-0x100(%rbp)
ffffffffffe030c1:	8b 00                	mov    (%rax),%eax
ffffffffffe030c3:	48 98                	cltq   
ffffffffffe030c5:	48 89 85 e8 fe ff ff 	mov    %rax,-0x118(%rbp)
ffffffffffe030cc:	eb 39                	jmp    ffffffffffe03107 <printf+0x346>
ffffffffffe030ce:	48 8d 8d e8 fe ff ff 	lea    -0x118(%rbp),%rcx
ffffffffffe030d5:	48 8b 85 d8 fe ff ff 	mov    -0x128(%rbp),%rax
ffffffffffe030dc:	ba 0a 00 00 00       	mov    $0xa,%edx
ffffffffffe030e1:	48 89 ce             	mov    %rcx,%rsi
ffffffffffe030e4:	48 89 c7             	mov    %rax,%rdi
ffffffffffe030e7:	e8 0b f9 ff ff       	callq  ffffffffffe029f7 <parse_number>
ffffffffffe030ec:	48 98                	cltq   
ffffffffffe030ee:	48 01 85 d8 fe ff ff 	add    %rax,-0x128(%rbp)
ffffffffffe030f5:	48 8b 85 d8 fe ff ff 	mov    -0x128(%rbp),%rax
ffffffffffe030fc:	0f b6 00             	movzbl (%rax),%eax
ffffffffffe030ff:	84 c0                	test   %al,%al
ffffffffffe03101:	0f 84 0d 0a 00 00    	je     ffffffffffe03b14 <printf+0xd53>
ffffffffffe03107:	48 8b 85 d8 fe ff ff 	mov    -0x128(%rbp),%rax
ffffffffffe0310e:	0f b6 00             	movzbl (%rax),%eax
ffffffffffe03111:	0f be c0             	movsbl %al,%eax
ffffffffffe03114:	83 e8 68             	sub    $0x68,%eax
ffffffffffe03117:	83 f8 12             	cmp    $0x12,%eax
ffffffffffe0311a:	77 66                	ja     ffffffffffe03182 <printf+0x3c1>
ffffffffffe0311c:	89 c0                	mov    %eax,%eax
ffffffffffe0311e:	48 8d 14 85 00 00 00 	lea    0x0(,%rax,4),%rdx
ffffffffffe03125:	00 
ffffffffffe03126:	48 8d 05 ef 35 00 00 	lea    0x35ef(%rip),%rax        # ffffffffffe0671c <set_timeslice_len+0x89>
ffffffffffe0312d:	8b 04 02             	mov    (%rdx,%rax,1),%eax
ffffffffffe03130:	48 98                	cltq   
ffffffffffe03132:	48 8d 15 e3 35 00 00 	lea    0x35e3(%rip),%rdx        # ffffffffffe0671c <set_timeslice_len+0x89>
ffffffffffe03139:	48 01 d0             	add    %rdx,%rax
ffffffffffe0313c:	ff e0                	jmpq   *%rax
ffffffffffe0313e:	83 bd 40 ff ff ff 00 	cmpl   $0x0,-0xc0(%rbp)
ffffffffffe03145:	7e 3e                	jle    ffffffffffe03185 <printf+0x3c4>
ffffffffffe03147:	83 ad 40 ff ff ff 01 	subl   $0x1,-0xc0(%rbp)
ffffffffffe0314e:	eb 13                	jmp    ffffffffffe03163 <printf+0x3a2>
ffffffffffe03150:	83 bd 40 ff ff ff 03 	cmpl   $0x3,-0xc0(%rbp)
ffffffffffe03157:	7f 2f                	jg     ffffffffffe03188 <printf+0x3c7>
ffffffffffe03159:	83 85 40 ff ff ff 01 	addl   $0x1,-0xc0(%rbp)
ffffffffffe03160:	eb 01                	jmp    ffffffffffe03163 <printf+0x3a2>
ffffffffffe03162:	90                   	nop
ffffffffffe03163:	48 8b 85 d8 fe ff ff 	mov    -0x128(%rbp),%rax
ffffffffffe0316a:	48 8d 50 01          	lea    0x1(%rax),%rdx
ffffffffffe0316e:	48 89 95 d8 fe ff ff 	mov    %rdx,-0x128(%rbp)
ffffffffffe03175:	0f b6 00             	movzbl (%rax),%eax
ffffffffffe03178:	84 c0                	test   %al,%al
ffffffffffe0317a:	0f 84 97 09 00 00    	je     ffffffffffe03b17 <printf+0xd56>
ffffffffffe03180:	eb 85                	jmp    ffffffffffe03107 <printf+0x346>
ffffffffffe03182:	90                   	nop
ffffffffffe03183:	eb 04                	jmp    ffffffffffe03189 <printf+0x3c8>
ffffffffffe03185:	90                   	nop
ffffffffffe03186:	eb 01                	jmp    ffffffffffe03189 <printf+0x3c8>
ffffffffffe03188:	90                   	nop
ffffffffffe03189:	48 8b 85 d8 fe ff ff 	mov    -0x128(%rbp),%rax
ffffffffffe03190:	0f b6 00             	movzbl (%rax),%eax
ffffffffffe03193:	0f be c0             	movsbl %al,%eax
ffffffffffe03196:	83 f8 73             	cmp    $0x73,%eax
ffffffffffe03199:	74 79                	je     ffffffffffe03214 <printf+0x453>
ffffffffffe0319b:	83 f8 73             	cmp    $0x73,%eax
ffffffffffe0319e:	0f 8f 7b 01 00 00    	jg     ffffffffffe0331f <printf+0x55e>
ffffffffffe031a4:	83 f8 63             	cmp    $0x63,%eax
ffffffffffe031a7:	74 0e                	je     ffffffffffe031b7 <printf+0x3f6>
ffffffffffe031a9:	83 f8 6e             	cmp    $0x6e,%eax
ffffffffffe031ac:	0f 84 02 01 00 00    	je     ffffffffffe032b4 <printf+0x4f3>
ffffffffffe031b2:	e9 68 01 00 00       	jmpq   ffffffffffe0331f <printf+0x55e>
ffffffffffe031b7:	8b 85 f8 fe ff ff    	mov    -0x108(%rbp),%eax
ffffffffffe031bd:	83 f8 2f             	cmp    $0x2f,%eax
ffffffffffe031c0:	77 23                	ja     ffffffffffe031e5 <printf+0x424>
ffffffffffe031c2:	48 8b 85 08 ff ff ff 	mov    -0xf8(%rbp),%rax
ffffffffffe031c9:	8b 95 f8 fe ff ff    	mov    -0x108(%rbp),%edx
ffffffffffe031cf:	89 d2                	mov    %edx,%edx
ffffffffffe031d1:	48 01 d0             	add    %rdx,%rax
ffffffffffe031d4:	8b 95 f8 fe ff ff    	mov    -0x108(%rbp),%edx
ffffffffffe031da:	83 c2 08             	add    $0x8,%edx
ffffffffffe031dd:	89 95 f8 fe ff ff    	mov    %edx,-0x108(%rbp)
ffffffffffe031e3:	eb 12                	jmp    ffffffffffe031f7 <printf+0x436>
ffffffffffe031e5:	48 8b 85 00 ff ff ff 	mov    -0x100(%rbp),%rax
ffffffffffe031ec:	48 8d 50 08          	lea    0x8(%rax),%rdx
ffffffffffe031f0:	48 89 95 00 ff ff ff 	mov    %rdx,-0x100(%rbp)
ffffffffffe031f7:	8b 08                	mov    (%rax),%ecx
ffffffffffe031f9:	48 8b 85 10 ff ff ff 	mov    -0xf0(%rbp),%rax
ffffffffffe03200:	48 8d 50 01          	lea    0x1(%rax),%rdx
ffffffffffe03204:	48 89 95 10 ff ff ff 	mov    %rdx,-0xf0(%rbp)
ffffffffffe0320b:	89 ca                	mov    %ecx,%edx
ffffffffffe0320d:	88 10                	mov    %dl,(%rax)
ffffffffffe0320f:	e9 db 08 00 00       	jmpq   ffffffffffe03aef <printf+0xd2e>
ffffffffffe03214:	8b 85 f8 fe ff ff    	mov    -0x108(%rbp),%eax
ffffffffffe0321a:	83 f8 2f             	cmp    $0x2f,%eax
ffffffffffe0321d:	77 23                	ja     ffffffffffe03242 <printf+0x481>
ffffffffffe0321f:	48 8b 85 08 ff ff ff 	mov    -0xf8(%rbp),%rax
ffffffffffe03226:	8b 95 f8 fe ff ff    	mov    -0x108(%rbp),%edx
ffffffffffe0322c:	89 d2                	mov    %edx,%edx
ffffffffffe0322e:	48 01 d0             	add    %rdx,%rax
ffffffffffe03231:	8b 95 f8 fe ff ff    	mov    -0x108(%rbp),%edx
ffffffffffe03237:	83 c2 08             	add    $0x8,%edx
ffffffffffe0323a:	89 95 f8 fe ff ff    	mov    %edx,-0x108(%rbp)
ffffffffffe03240:	eb 12                	jmp    ffffffffffe03254 <printf+0x493>
ffffffffffe03242:	48 8b 85 00 ff ff ff 	mov    -0x100(%rbp),%rax
ffffffffffe03249:	48 8d 50 08          	lea    0x8(%rax),%rdx
ffffffffffe0324d:	48 89 95 00 ff ff ff 	mov    %rdx,-0x100(%rbp)
ffffffffffe03254:	48 8b 00             	mov    (%rax),%rax
ffffffffffe03257:	48 89 85 30 ff ff ff 	mov    %rax,-0xd0(%rbp)
ffffffffffe0325e:	48 8b 85 30 ff ff ff 	mov    -0xd0(%rbp),%rax
ffffffffffe03265:	48 89 c7             	mov    %rax,%rdi
ffffffffffe03268:	e8 66 21 00 00       	callq  ffffffffffe053d3 <strlen>
ffffffffffe0326d:	89 85 2c ff ff ff    	mov    %eax,-0xd4(%rbp)
ffffffffffe03273:	0f be 8d 4e ff ff ff 	movsbl -0xb2(%rbp),%ecx
ffffffffffe0327a:	48 8b 85 f0 fe ff ff 	mov    -0x110(%rbp),%rax
ffffffffffe03281:	41 89 c2             	mov    %eax,%r10d
ffffffffffe03284:	8b bd 48 ff ff ff    	mov    -0xb8(%rbp),%edi
ffffffffffe0328a:	8b 95 2c ff ff ff    	mov    -0xd4(%rbp),%edx
ffffffffffe03290:	48 8b b5 30 ff ff ff 	mov    -0xd0(%rbp),%rsi
ffffffffffe03297:	48 8d 85 10 ff ff ff 	lea    -0xf0(%rbp),%rax
ffffffffffe0329e:	41 89 f9             	mov    %edi,%r9d
ffffffffffe032a1:	41 89 c8             	mov    %ecx,%r8d
ffffffffffe032a4:	44 89 d1             	mov    %r10d,%ecx
ffffffffffe032a7:	48 89 c7             	mov    %rax,%rdi
ffffffffffe032aa:	e8 1f f8 ff ff       	callq  ffffffffffe02ace <fmt_string>
ffffffffffe032af:	e9 3b 08 00 00       	jmpq   ffffffffffe03aef <printf+0xd2e>
ffffffffffe032b4:	8b 85 f8 fe ff ff    	mov    -0x108(%rbp),%eax
ffffffffffe032ba:	83 f8 2f             	cmp    $0x2f,%eax
ffffffffffe032bd:	77 23                	ja     ffffffffffe032e2 <printf+0x521>
ffffffffffe032bf:	48 8b 85 08 ff ff ff 	mov    -0xf8(%rbp),%rax
ffffffffffe032c6:	8b 95 f8 fe ff ff    	mov    -0x108(%rbp),%edx
ffffffffffe032cc:	89 d2                	mov    %edx,%edx
ffffffffffe032ce:	48 01 d0             	add    %rdx,%rax
ffffffffffe032d1:	8b 95 f8 fe ff ff    	mov    -0x108(%rbp),%edx
ffffffffffe032d7:	83 c2 08             	add    $0x8,%edx
ffffffffffe032da:	89 95 f8 fe ff ff    	mov    %edx,-0x108(%rbp)
ffffffffffe032e0:	eb 12                	jmp    ffffffffffe032f4 <printf+0x533>
ffffffffffe032e2:	48 8b 85 00 ff ff ff 	mov    -0x100(%rbp),%rax
ffffffffffe032e9:	48 8d 50 08          	lea    0x8(%rax),%rdx
ffffffffffe032ed:	48 89 95 00 ff ff ff 	mov    %rdx,-0x100(%rbp)
ffffffffffe032f4:	48 8b 00             	mov    (%rax),%rax
ffffffffffe032f7:	48 89 85 20 ff ff ff 	mov    %rax,-0xe0(%rbp)
ffffffffffe032fe:	48 8b 85 10 ff ff ff 	mov    -0xf0(%rbp),%rax
ffffffffffe03305:	48 8d 15 14 46 00 00 	lea    0x4614(%rip),%rdx        # ffffffffffe07920 <ibuf.0>
ffffffffffe0330c:	48 29 d0             	sub    %rdx,%rax
ffffffffffe0330f:	89 c2                	mov    %eax,%edx
ffffffffffe03311:	48 8b 85 20 ff ff ff 	mov    -0xe0(%rbp),%rax
ffffffffffe03318:	89 10                	mov    %edx,(%rax)
ffffffffffe0331a:	e9 d0 07 00 00       	jmpq   ffffffffffe03aef <printf+0xd2e>
ffffffffffe0331f:	90                   	nop
ffffffffffe03320:	48 8b 85 d8 fe ff ff 	mov    -0x128(%rbp),%rax
ffffffffffe03327:	0f b6 00             	movzbl (%rax),%eax
ffffffffffe0332a:	0f be c0             	movsbl %al,%eax
ffffffffffe0332d:	83 e8 58             	sub    $0x58,%eax
ffffffffffe03330:	83 f8 20             	cmp    $0x20,%eax
ffffffffffe03333:	0f 97 c2             	seta   %dl
ffffffffffe03336:	84 d2                	test   %dl,%dl
ffffffffffe03338:	0f 85 dc 07 00 00    	jne    ffffffffffe03b1a <printf+0xd59>
ffffffffffe0333e:	ba 01 00 00 00       	mov    $0x1,%edx
ffffffffffe03343:	89 c1                	mov    %eax,%ecx
ffffffffffe03345:	48 d3 e2             	shl    %cl,%rdx
ffffffffffe03348:	48 89 d0             	mov    %rdx,%rax
ffffffffffe0334b:	48 ba 01 00 80 20 01 	movabs $0x120800001,%rdx
ffffffffffe03352:	00 00 00 
ffffffffffe03355:	48 21 c2             	and    %rax,%rdx
ffffffffffe03358:	48 85 d2             	test   %rdx,%rdx
ffffffffffe0335b:	0f 95 c2             	setne  %dl
ffffffffffe0335e:	84 d2                	test   %dl,%dl
ffffffffffe03360:	0f 85 ee 01 00 00    	jne    ffffffffffe03554 <printf+0x793>
ffffffffffe03366:	48 89 c2             	mov    %rax,%rdx
ffffffffffe03369:	81 e2 00 10 02 00    	and    $0x21000,%edx
ffffffffffe0336f:	48 85 d2             	test   %rdx,%rdx
ffffffffffe03372:	0f 95 c2             	setne  %dl
ffffffffffe03375:	84 d2                	test   %dl,%dl
ffffffffffe03377:	75 18                	jne    ffffffffffe03391 <printf+0x5d0>
ffffffffffe03379:	25 00 00 00 01       	and    $0x1000000,%eax
ffffffffffe0337e:	48 85 c0             	test   %rax,%rax
ffffffffffe03381:	0f 95 c0             	setne  %al
ffffffffffe03384:	84 c0                	test   %al,%al
ffffffffffe03386:	0f 85 86 03 00 00    	jne    ffffffffffe03712 <printf+0x951>
ffffffffffe0338c:	e9 89 07 00 00       	jmpq   ffffffffffe03b1a <printf+0xd59>
ffffffffffe03391:	83 bd 40 ff ff ff 00 	cmpl   $0x0,-0xc0(%rbp)
ffffffffffe03398:	75 52                	jne    ffffffffffe033ec <printf+0x62b>
ffffffffffe0339a:	8b 85 f8 fe ff ff    	mov    -0x108(%rbp),%eax
ffffffffffe033a0:	83 f8 2f             	cmp    $0x2f,%eax
ffffffffffe033a3:	77 23                	ja     ffffffffffe033c8 <printf+0x607>
ffffffffffe033a5:	48 8b 85 08 ff ff ff 	mov    -0xf8(%rbp),%rax
ffffffffffe033ac:	8b 95 f8 fe ff ff    	mov    -0x108(%rbp),%edx
ffffffffffe033b2:	89 d2                	mov    %edx,%edx
ffffffffffe033b4:	48 01 d0             	add    %rdx,%rax
ffffffffffe033b7:	8b 95 f8 fe ff ff    	mov    -0x108(%rbp),%edx
ffffffffffe033bd:	83 c2 08             	add    $0x8,%edx
ffffffffffe033c0:	89 95 f8 fe ff ff    	mov    %edx,-0x108(%rbp)
ffffffffffe033c6:	eb 12                	jmp    ffffffffffe033da <printf+0x619>
ffffffffffe033c8:	48 8b 85 00 ff ff ff 	mov    -0x100(%rbp),%rax
ffffffffffe033cf:	48 8d 50 08          	lea    0x8(%rax),%rdx
ffffffffffe033d3:	48 89 95 00 ff ff ff 	mov    %rdx,-0x100(%rbp)
ffffffffffe033da:	8b 00                	mov    (%rax),%eax
ffffffffffe033dc:	48 0f be c0          	movsbq %al,%rax
ffffffffffe033e0:	48 89 85 38 ff ff ff 	mov    %rax,-0xc8(%rbp)
ffffffffffe033e7:	e9 71 03 00 00       	jmpq   ffffffffffe0375d <printf+0x99c>
ffffffffffe033ec:	83 bd 40 ff ff ff 01 	cmpl   $0x1,-0xc0(%rbp)
ffffffffffe033f3:	75 52                	jne    ffffffffffe03447 <printf+0x686>
ffffffffffe033f5:	8b 85 f8 fe ff ff    	mov    -0x108(%rbp),%eax
ffffffffffe033fb:	83 f8 2f             	cmp    $0x2f,%eax
ffffffffffe033fe:	77 23                	ja     ffffffffffe03423 <printf+0x662>
ffffffffffe03400:	48 8b 85 08 ff ff ff 	mov    -0xf8(%rbp),%rax
ffffffffffe03407:	8b 95 f8 fe ff ff    	mov    -0x108(%rbp),%edx
ffffffffffe0340d:	89 d2                	mov    %edx,%edx
ffffffffffe0340f:	48 01 d0             	add    %rdx,%rax
ffffffffffe03412:	8b 95 f8 fe ff ff    	mov    -0x108(%rbp),%edx
ffffffffffe03418:	83 c2 08             	add    $0x8,%edx
ffffffffffe0341b:	89 95 f8 fe ff ff    	mov    %edx,-0x108(%rbp)
ffffffffffe03421:	eb 12                	jmp    ffffffffffe03435 <printf+0x674>
ffffffffffe03423:	48 8b 85 00 ff ff ff 	mov    -0x100(%rbp),%rax
ffffffffffe0342a:	48 8d 50 08          	lea    0x8(%rax),%rdx
ffffffffffe0342e:	48 89 95 00 ff ff ff 	mov    %rdx,-0x100(%rbp)
ffffffffffe03435:	8b 00                	mov    (%rax),%eax
ffffffffffe03437:	48 0f bf c0          	movswq %ax,%rax
ffffffffffe0343b:	48 89 85 38 ff ff ff 	mov    %rax,-0xc8(%rbp)
ffffffffffe03442:	e9 16 03 00 00       	jmpq   ffffffffffe0375d <printf+0x99c>
ffffffffffe03447:	83 bd 40 ff ff ff 02 	cmpl   $0x2,-0xc0(%rbp)
ffffffffffe0344e:	75 50                	jne    ffffffffffe034a0 <printf+0x6df>
ffffffffffe03450:	8b 85 f8 fe ff ff    	mov    -0x108(%rbp),%eax
ffffffffffe03456:	83 f8 2f             	cmp    $0x2f,%eax
ffffffffffe03459:	77 23                	ja     ffffffffffe0347e <printf+0x6bd>
ffffffffffe0345b:	48 8b 85 08 ff ff ff 	mov    -0xf8(%rbp),%rax
ffffffffffe03462:	8b 95 f8 fe ff ff    	mov    -0x108(%rbp),%edx
ffffffffffe03468:	89 d2                	mov    %edx,%edx
ffffffffffe0346a:	48 01 d0             	add    %rdx,%rax
ffffffffffe0346d:	8b 95 f8 fe ff ff    	mov    -0x108(%rbp),%edx
ffffffffffe03473:	83 c2 08             	add    $0x8,%edx
ffffffffffe03476:	89 95 f8 fe ff ff    	mov    %edx,-0x108(%rbp)
ffffffffffe0347c:	eb 12                	jmp    ffffffffffe03490 <printf+0x6cf>
ffffffffffe0347e:	48 8b 85 00 ff ff ff 	mov    -0x100(%rbp),%rax
ffffffffffe03485:	48 8d 50 08          	lea    0x8(%rax),%rdx
ffffffffffe03489:	48 89 95 00 ff ff ff 	mov    %rdx,-0x100(%rbp)
ffffffffffe03490:	8b 00                	mov    (%rax),%eax
ffffffffffe03492:	48 98                	cltq   
ffffffffffe03494:	48 89 85 38 ff ff ff 	mov    %rax,-0xc8(%rbp)
ffffffffffe0349b:	e9 bd 02 00 00       	jmpq   ffffffffffe0375d <printf+0x99c>
ffffffffffe034a0:	83 bd 40 ff ff ff 03 	cmpl   $0x3,-0xc0(%rbp)
ffffffffffe034a7:	75 4f                	jne    ffffffffffe034f8 <printf+0x737>
ffffffffffe034a9:	8b 85 f8 fe ff ff    	mov    -0x108(%rbp),%eax
ffffffffffe034af:	83 f8 2f             	cmp    $0x2f,%eax
ffffffffffe034b2:	77 23                	ja     ffffffffffe034d7 <printf+0x716>
ffffffffffe034b4:	48 8b 85 08 ff ff ff 	mov    -0xf8(%rbp),%rax
ffffffffffe034bb:	8b 95 f8 fe ff ff    	mov    -0x108(%rbp),%edx
ffffffffffe034c1:	89 d2                	mov    %edx,%edx
ffffffffffe034c3:	48 01 d0             	add    %rdx,%rax
ffffffffffe034c6:	8b 95 f8 fe ff ff    	mov    -0x108(%rbp),%edx
ffffffffffe034cc:	83 c2 08             	add    $0x8,%edx
ffffffffffe034cf:	89 95 f8 fe ff ff    	mov    %edx,-0x108(%rbp)
ffffffffffe034d5:	eb 12                	jmp    ffffffffffe034e9 <printf+0x728>
ffffffffffe034d7:	48 8b 85 00 ff ff ff 	mov    -0x100(%rbp),%rax
ffffffffffe034de:	48 8d 50 08          	lea    0x8(%rax),%rdx
ffffffffffe034e2:	48 89 95 00 ff ff ff 	mov    %rdx,-0x100(%rbp)
ffffffffffe034e9:	48 8b 00             	mov    (%rax),%rax
ffffffffffe034ec:	48 89 85 38 ff ff ff 	mov    %rax,-0xc8(%rbp)
ffffffffffe034f3:	e9 65 02 00 00       	jmpq   ffffffffffe0375d <printf+0x99c>
ffffffffffe034f8:	83 bd 40 ff ff ff 04 	cmpl   $0x4,-0xc0(%rbp)
ffffffffffe034ff:	0f 85 18 06 00 00    	jne    ffffffffffe03b1d <printf+0xd5c>
ffffffffffe03505:	8b 85 f8 fe ff ff    	mov    -0x108(%rbp),%eax
ffffffffffe0350b:	83 f8 2f             	cmp    $0x2f,%eax
ffffffffffe0350e:	77 23                	ja     ffffffffffe03533 <printf+0x772>
ffffffffffe03510:	48 8b 85 08 ff ff ff 	mov    -0xf8(%rbp),%rax
ffffffffffe03517:	8b 95 f8 fe ff ff    	mov    -0x108(%rbp),%edx
ffffffffffe0351d:	89 d2                	mov    %edx,%edx
ffffffffffe0351f:	48 01 d0             	add    %rdx,%rax
ffffffffffe03522:	8b 95 f8 fe ff ff    	mov    -0x108(%rbp),%edx
ffffffffffe03528:	83 c2 08             	add    $0x8,%edx
ffffffffffe0352b:	89 95 f8 fe ff ff    	mov    %edx,-0x108(%rbp)
ffffffffffe03531:	eb 12                	jmp    ffffffffffe03545 <printf+0x784>
ffffffffffe03533:	48 8b 85 00 ff ff ff 	mov    -0x100(%rbp),%rax
ffffffffffe0353a:	48 8d 50 08          	lea    0x8(%rax),%rdx
ffffffffffe0353e:	48 89 95 00 ff ff ff 	mov    %rdx,-0x100(%rbp)
ffffffffffe03545:	48 8b 00             	mov    (%rax),%rax
ffffffffffe03548:	48 89 85 38 ff ff ff 	mov    %rax,-0xc8(%rbp)
ffffffffffe0354f:	e9 09 02 00 00       	jmpq   ffffffffffe0375d <printf+0x99c>
ffffffffffe03554:	83 bd 40 ff ff ff 00 	cmpl   $0x0,-0xc0(%rbp)
ffffffffffe0355b:	75 51                	jne    ffffffffffe035ae <printf+0x7ed>
ffffffffffe0355d:	8b 85 f8 fe ff ff    	mov    -0x108(%rbp),%eax
ffffffffffe03563:	83 f8 2f             	cmp    $0x2f,%eax
ffffffffffe03566:	77 23                	ja     ffffffffffe0358b <printf+0x7ca>
ffffffffffe03568:	48 8b 85 08 ff ff ff 	mov    -0xf8(%rbp),%rax
ffffffffffe0356f:	8b 95 f8 fe ff ff    	mov    -0x108(%rbp),%edx
ffffffffffe03575:	89 d2                	mov    %edx,%edx
ffffffffffe03577:	48 01 d0             	add    %rdx,%rax
ffffffffffe0357a:	8b 95 f8 fe ff ff    	mov    -0x108(%rbp),%edx
ffffffffffe03580:	83 c2 08             	add    $0x8,%edx
ffffffffffe03583:	89 95 f8 fe ff ff    	mov    %edx,-0x108(%rbp)
ffffffffffe03589:	eb 12                	jmp    ffffffffffe0359d <printf+0x7dc>
ffffffffffe0358b:	48 8b 85 00 ff ff ff 	mov    -0x100(%rbp),%rax
ffffffffffe03592:	48 8d 50 08          	lea    0x8(%rax),%rdx
ffffffffffe03596:	48 89 95 00 ff ff ff 	mov    %rdx,-0x100(%rbp)
ffffffffffe0359d:	8b 00                	mov    (%rax),%eax
ffffffffffe0359f:	0f b6 c0             	movzbl %al,%eax
ffffffffffe035a2:	48 89 85 38 ff ff ff 	mov    %rax,-0xc8(%rbp)
ffffffffffe035a9:	e9 af 01 00 00       	jmpq   ffffffffffe0375d <printf+0x99c>
ffffffffffe035ae:	83 bd 40 ff ff ff 01 	cmpl   $0x1,-0xc0(%rbp)
ffffffffffe035b5:	75 51                	jne    ffffffffffe03608 <printf+0x847>
ffffffffffe035b7:	8b 85 f8 fe ff ff    	mov    -0x108(%rbp),%eax
ffffffffffe035bd:	83 f8 2f             	cmp    $0x2f,%eax
ffffffffffe035c0:	77 23                	ja     ffffffffffe035e5 <printf+0x824>
ffffffffffe035c2:	48 8b 85 08 ff ff ff 	mov    -0xf8(%rbp),%rax
ffffffffffe035c9:	8b 95 f8 fe ff ff    	mov    -0x108(%rbp),%edx
ffffffffffe035cf:	89 d2                	mov    %edx,%edx
ffffffffffe035d1:	48 01 d0             	add    %rdx,%rax
ffffffffffe035d4:	8b 95 f8 fe ff ff    	mov    -0x108(%rbp),%edx
ffffffffffe035da:	83 c2 08             	add    $0x8,%edx
ffffffffffe035dd:	89 95 f8 fe ff ff    	mov    %edx,-0x108(%rbp)
ffffffffffe035e3:	eb 12                	jmp    ffffffffffe035f7 <printf+0x836>
ffffffffffe035e5:	48 8b 85 00 ff ff ff 	mov    -0x100(%rbp),%rax
ffffffffffe035ec:	48 8d 50 08          	lea    0x8(%rax),%rdx
ffffffffffe035f0:	48 89 95 00 ff ff ff 	mov    %rdx,-0x100(%rbp)
ffffffffffe035f7:	8b 00                	mov    (%rax),%eax
ffffffffffe035f9:	0f b7 c0             	movzwl %ax,%eax
ffffffffffe035fc:	48 89 85 38 ff ff ff 	mov    %rax,-0xc8(%rbp)
ffffffffffe03603:	e9 55 01 00 00       	jmpq   ffffffffffe0375d <printf+0x99c>
ffffffffffe03608:	83 bd 40 ff ff ff 02 	cmpl   $0x2,-0xc0(%rbp)
ffffffffffe0360f:	75 50                	jne    ffffffffffe03661 <printf+0x8a0>
ffffffffffe03611:	8b 85 f8 fe ff ff    	mov    -0x108(%rbp),%eax
ffffffffffe03617:	83 f8 2f             	cmp    $0x2f,%eax
ffffffffffe0361a:	77 23                	ja     ffffffffffe0363f <printf+0x87e>
ffffffffffe0361c:	48 8b 85 08 ff ff ff 	mov    -0xf8(%rbp),%rax
ffffffffffe03623:	8b 95 f8 fe ff ff    	mov    -0x108(%rbp),%edx
ffffffffffe03629:	89 d2                	mov    %edx,%edx
ffffffffffe0362b:	48 01 d0             	add    %rdx,%rax
ffffffffffe0362e:	8b 95 f8 fe ff ff    	mov    -0x108(%rbp),%edx
ffffffffffe03634:	83 c2 08             	add    $0x8,%edx
ffffffffffe03637:	89 95 f8 fe ff ff    	mov    %edx,-0x108(%rbp)
ffffffffffe0363d:	eb 12                	jmp    ffffffffffe03651 <printf+0x890>
ffffffffffe0363f:	48 8b 85 00 ff ff ff 	mov    -0x100(%rbp),%rax
ffffffffffe03646:	48 8d 50 08          	lea    0x8(%rax),%rdx
ffffffffffe0364a:	48 89 95 00 ff ff ff 	mov    %rdx,-0x100(%rbp)
ffffffffffe03651:	8b 00                	mov    (%rax),%eax
ffffffffffe03653:	89 c0                	mov    %eax,%eax
ffffffffffe03655:	48 89 85 38 ff ff ff 	mov    %rax,-0xc8(%rbp)
ffffffffffe0365c:	e9 fc 00 00 00       	jmpq   ffffffffffe0375d <printf+0x99c>
ffffffffffe03661:	83 bd 40 ff ff ff 03 	cmpl   $0x3,-0xc0(%rbp)
ffffffffffe03668:	75 4f                	jne    ffffffffffe036b9 <printf+0x8f8>
ffffffffffe0366a:	8b 85 f8 fe ff ff    	mov    -0x108(%rbp),%eax
ffffffffffe03670:	83 f8 2f             	cmp    $0x2f,%eax
ffffffffffe03673:	77 23                	ja     ffffffffffe03698 <printf+0x8d7>
ffffffffffe03675:	48 8b 85 08 ff ff ff 	mov    -0xf8(%rbp),%rax
ffffffffffe0367c:	8b 95 f8 fe ff ff    	mov    -0x108(%rbp),%edx
ffffffffffe03682:	89 d2                	mov    %edx,%edx
ffffffffffe03684:	48 01 d0             	add    %rdx,%rax
ffffffffffe03687:	8b 95 f8 fe ff ff    	mov    -0x108(%rbp),%edx
ffffffffffe0368d:	83 c2 08             	add    $0x8,%edx
ffffffffffe03690:	89 95 f8 fe ff ff    	mov    %edx,-0x108(%rbp)
ffffffffffe03696:	eb 12                	jmp    ffffffffffe036aa <printf+0x8e9>
ffffffffffe03698:	48 8b 85 00 ff ff ff 	mov    -0x100(%rbp),%rax
ffffffffffe0369f:	48 8d 50 08          	lea    0x8(%rax),%rdx
ffffffffffe036a3:	48 89 95 00 ff ff ff 	mov    %rdx,-0x100(%rbp)
ffffffffffe036aa:	48 8b 00             	mov    (%rax),%rax
ffffffffffe036ad:	48 89 85 38 ff ff ff 	mov    %rax,-0xc8(%rbp)
ffffffffffe036b4:	e9 a4 00 00 00       	jmpq   ffffffffffe0375d <printf+0x99c>
ffffffffffe036b9:	83 bd 40 ff ff ff 04 	cmpl   $0x4,-0xc0(%rbp)
ffffffffffe036c0:	0f 85 5a 04 00 00    	jne    ffffffffffe03b20 <printf+0xd5f>
ffffffffffe036c6:	8b 85 f8 fe ff ff    	mov    -0x108(%rbp),%eax
ffffffffffe036cc:	83 f8 2f             	cmp    $0x2f,%eax
ffffffffffe036cf:	77 23                	ja     ffffffffffe036f4 <printf+0x933>
ffffffffffe036d1:	48 8b 85 08 ff ff ff 	mov    -0xf8(%rbp),%rax
ffffffffffe036d8:	8b 95 f8 fe ff ff    	mov    -0x108(%rbp),%edx
ffffffffffe036de:	89 d2                	mov    %edx,%edx
ffffffffffe036e0:	48 01 d0             	add    %rdx,%rax
ffffffffffe036e3:	8b 95 f8 fe ff ff    	mov    -0x108(%rbp),%edx
ffffffffffe036e9:	83 c2 08             	add    $0x8,%edx
ffffffffffe036ec:	89 95 f8 fe ff ff    	mov    %edx,-0x108(%rbp)
ffffffffffe036f2:	eb 12                	jmp    ffffffffffe03706 <printf+0x945>
ffffffffffe036f4:	48 8b 85 00 ff ff ff 	mov    -0x100(%rbp),%rax
ffffffffffe036fb:	48 8d 50 08          	lea    0x8(%rax),%rdx
ffffffffffe036ff:	48 89 95 00 ff ff ff 	mov    %rdx,-0x100(%rbp)
ffffffffffe03706:	48 8b 00             	mov    (%rax),%rax
ffffffffffe03709:	48 89 85 38 ff ff ff 	mov    %rax,-0xc8(%rbp)
ffffffffffe03710:	eb 4b                	jmp    ffffffffffe0375d <printf+0x99c>
ffffffffffe03712:	8b 85 f8 fe ff ff    	mov    -0x108(%rbp),%eax
ffffffffffe03718:	83 f8 2f             	cmp    $0x2f,%eax
ffffffffffe0371b:	77 23                	ja     ffffffffffe03740 <printf+0x97f>
ffffffffffe0371d:	48 8b 85 08 ff ff ff 	mov    -0xf8(%rbp),%rax
ffffffffffe03724:	8b 95 f8 fe ff ff    	mov    -0x108(%rbp),%edx
ffffffffffe0372a:	89 d2                	mov    %edx,%edx
ffffffffffe0372c:	48 01 d0             	add    %rdx,%rax
ffffffffffe0372f:	8b 95 f8 fe ff ff    	mov    -0x108(%rbp),%edx
ffffffffffe03735:	83 c2 08             	add    $0x8,%edx
ffffffffffe03738:	89 95 f8 fe ff ff    	mov    %edx,-0x108(%rbp)
ffffffffffe0373e:	eb 12                	jmp    ffffffffffe03752 <printf+0x991>
ffffffffffe03740:	48 8b 85 00 ff ff ff 	mov    -0x100(%rbp),%rax
ffffffffffe03747:	48 8d 50 08          	lea    0x8(%rax),%rdx
ffffffffffe0374b:	48 89 95 00 ff ff ff 	mov    %rdx,-0x100(%rbp)
ffffffffffe03752:	48 8b 00             	mov    (%rax),%rax
ffffffffffe03755:	48 89 85 38 ff ff ff 	mov    %rax,-0xc8(%rbp)
ffffffffffe0375c:	90                   	nop
ffffffffffe0375d:	48 8b 85 d8 fe ff ff 	mov    -0x128(%rbp),%rax
ffffffffffe03764:	0f b6 00             	movzbl (%rax),%eax
ffffffffffe03767:	0f be c0             	movsbl %al,%eax
ffffffffffe0376a:	83 e8 58             	sub    $0x58,%eax
ffffffffffe0376d:	83 f8 20             	cmp    $0x20,%eax
ffffffffffe03770:	0f 87 ad 03 00 00    	ja     ffffffffffe03b23 <printf+0xd62>
ffffffffffe03776:	89 c0                	mov    %eax,%eax
ffffffffffe03778:	48 8d 14 85 00 00 00 	lea    0x0(,%rax,4),%rdx
ffffffffffe0377f:	00 
ffffffffffe03780:	48 8d 05 e1 2f 00 00 	lea    0x2fe1(%rip),%rax        # ffffffffffe06768 <set_timeslice_len+0xd5>
ffffffffffe03787:	8b 04 02             	mov    (%rdx,%rax,1),%eax
ffffffffffe0378a:	48 98                	cltq   
ffffffffffe0378c:	48 8d 15 d5 2f 00 00 	lea    0x2fd5(%rip),%rdx        # ffffffffffe06768 <set_timeslice_len+0xd5>
ffffffffffe03793:	48 01 d0             	add    %rdx,%rax
ffffffffffe03796:	ff e0                	jmpq   *%rax
ffffffffffe03798:	0f be 95 4f ff ff ff 	movsbl -0xb1(%rbp),%edx
ffffffffffe0379f:	0f be 8d 4e ff ff ff 	movsbl -0xb2(%rbp),%ecx
ffffffffffe037a6:	48 8b 85 f0 fe ff ff 	mov    -0x110(%rbp),%rax
ffffffffffe037ad:	41 89 c2             	mov    %eax,%r10d
ffffffffffe037b0:	8b bd 48 ff ff ff    	mov    -0xb8(%rbp),%edi
ffffffffffe037b6:	48 8b b5 38 ff ff ff 	mov    -0xc8(%rbp),%rsi
ffffffffffe037bd:	48 8d 85 10 ff ff ff 	lea    -0xf0(%rbp),%rax
ffffffffffe037c4:	48 83 ec 08          	sub    $0x8,%rsp
ffffffffffe037c8:	6a 00                	pushq  $0x0
ffffffffffe037ca:	6a 01                	pushq  $0x1
ffffffffffe037cc:	52                   	push   %rdx
ffffffffffe037cd:	41 89 f9             	mov    %edi,%r9d
ffffffffffe037d0:	41 89 c8             	mov    %ecx,%r8d
ffffffffffe037d3:	44 89 d1             	mov    %r10d,%ecx
ffffffffffe037d6:	ba 0a 00 00 00       	mov    $0xa,%edx
ffffffffffe037db:	48 89 c7             	mov    %rax,%rdi
ffffffffffe037de:	e8 ac f3 ff ff       	callq  ffffffffffe02b8f <fmt_number>
ffffffffffe037e3:	48 83 c4 20          	add    $0x20,%rsp
ffffffffffe037e7:	e9 03 03 00 00       	jmpq   ffffffffffe03aef <printf+0xd2e>
ffffffffffe037ec:	0f be 95 4f ff ff ff 	movsbl -0xb1(%rbp),%edx
ffffffffffe037f3:	0f be 8d 4e ff ff ff 	movsbl -0xb2(%rbp),%ecx
ffffffffffe037fa:	48 8b 85 f0 fe ff ff 	mov    -0x110(%rbp),%rax
ffffffffffe03801:	41 89 c2             	mov    %eax,%r10d
ffffffffffe03804:	8b bd 48 ff ff ff    	mov    -0xb8(%rbp),%edi
ffffffffffe0380a:	48 8b b5 38 ff ff ff 	mov    -0xc8(%rbp),%rsi
ffffffffffe03811:	48 8d 85 10 ff ff ff 	lea    -0xf0(%rbp),%rax
ffffffffffe03818:	48 83 ec 08          	sub    $0x8,%rsp
ffffffffffe0381c:	6a 00                	pushq  $0x0
ffffffffffe0381e:	6a 00                	pushq  $0x0
ffffffffffe03820:	52                   	push   %rdx
ffffffffffe03821:	41 89 f9             	mov    %edi,%r9d
ffffffffffe03824:	41 89 c8             	mov    %ecx,%r8d
ffffffffffe03827:	44 89 d1             	mov    %r10d,%ecx
ffffffffffe0382a:	ba 0a 00 00 00       	mov    $0xa,%edx
ffffffffffe0382f:	48 89 c7             	mov    %rax,%rdi
ffffffffffe03832:	e8 58 f3 ff ff       	callq  ffffffffffe02b8f <fmt_number>
ffffffffffe03837:	48 83 c4 20          	add    $0x20,%rsp
ffffffffffe0383b:	e9 af 02 00 00       	jmpq   ffffffffffe03aef <printf+0xd2e>
ffffffffffe03840:	83 bd 44 ff ff ff 00 	cmpl   $0x0,-0xbc(%rbp)
ffffffffffe03847:	74 3c                	je     ffffffffffe03885 <printf+0xac4>
ffffffffffe03849:	48 8b 85 10 ff ff ff 	mov    -0xf0(%rbp),%rax
ffffffffffe03850:	48 8d 50 01          	lea    0x1(%rax),%rdx
ffffffffffe03854:	48 89 95 10 ff ff ff 	mov    %rdx,-0xf0(%rbp)
ffffffffffe0385b:	c6 00 30             	movb   $0x30,(%rax)
ffffffffffe0385e:	48 8b 85 10 ff ff ff 	mov    -0xf0(%rbp),%rax
ffffffffffe03865:	48 8d 50 01          	lea    0x1(%rax),%rdx
ffffffffffe03869:	48 89 95 10 ff ff ff 	mov    %rdx,-0xf0(%rbp)
ffffffffffe03870:	c6 00 78             	movb   $0x78,(%rax)
ffffffffffe03873:	48 8b 85 f0 fe ff ff 	mov    -0x110(%rbp),%rax
ffffffffffe0387a:	48 83 e8 02          	sub    $0x2,%rax
ffffffffffe0387e:	48 89 85 f0 fe ff ff 	mov    %rax,-0x110(%rbp)
ffffffffffe03885:	0f be 95 4f ff ff ff 	movsbl -0xb1(%rbp),%edx
ffffffffffe0388c:	0f be 8d 4e ff ff ff 	movsbl -0xb2(%rbp),%ecx
ffffffffffe03893:	48 8b 85 f0 fe ff ff 	mov    -0x110(%rbp),%rax
ffffffffffe0389a:	41 89 c2             	mov    %eax,%r10d
ffffffffffe0389d:	8b bd 48 ff ff ff    	mov    -0xb8(%rbp),%edi
ffffffffffe038a3:	48 8b b5 38 ff ff ff 	mov    -0xc8(%rbp),%rsi
ffffffffffe038aa:	48 8d 85 10 ff ff ff 	lea    -0xf0(%rbp),%rax
ffffffffffe038b1:	48 83 ec 08          	sub    $0x8,%rsp
ffffffffffe038b5:	6a 00                	pushq  $0x0
ffffffffffe038b7:	6a 00                	pushq  $0x0
ffffffffffe038b9:	52                   	push   %rdx
ffffffffffe038ba:	41 89 f9             	mov    %edi,%r9d
ffffffffffe038bd:	41 89 c8             	mov    %ecx,%r8d
ffffffffffe038c0:	44 89 d1             	mov    %r10d,%ecx
ffffffffffe038c3:	ba 10 00 00 00       	mov    $0x10,%edx
ffffffffffe038c8:	48 89 c7             	mov    %rax,%rdi
ffffffffffe038cb:	e8 bf f2 ff ff       	callq  ffffffffffe02b8f <fmt_number>
ffffffffffe038d0:	48 83 c4 20          	add    $0x20,%rsp
ffffffffffe038d4:	e9 16 02 00 00       	jmpq   ffffffffffe03aef <printf+0xd2e>
ffffffffffe038d9:	83 bd 44 ff ff ff 00 	cmpl   $0x0,-0xbc(%rbp)
ffffffffffe038e0:	74 3c                	je     ffffffffffe0391e <printf+0xb5d>
ffffffffffe038e2:	48 8b 85 10 ff ff ff 	mov    -0xf0(%rbp),%rax
ffffffffffe038e9:	48 8d 50 01          	lea    0x1(%rax),%rdx
ffffffffffe038ed:	48 89 95 10 ff ff ff 	mov    %rdx,-0xf0(%rbp)
ffffffffffe038f4:	c6 00 30             	movb   $0x30,(%rax)
ffffffffffe038f7:	48 8b 85 10 ff ff ff 	mov    -0xf0(%rbp),%rax
ffffffffffe038fe:	48 8d 50 01          	lea    0x1(%rax),%rdx
ffffffffffe03902:	48 89 95 10 ff ff ff 	mov    %rdx,-0xf0(%rbp)
ffffffffffe03909:	c6 00 78             	movb   $0x78,(%rax)
ffffffffffe0390c:	48 8b 85 f0 fe ff ff 	mov    -0x110(%rbp),%rax
ffffffffffe03913:	48 83 e8 02          	sub    $0x2,%rax
ffffffffffe03917:	48 89 85 f0 fe ff ff 	mov    %rax,-0x110(%rbp)
ffffffffffe0391e:	0f be 95 4f ff ff ff 	movsbl -0xb1(%rbp),%edx
ffffffffffe03925:	0f be 8d 4e ff ff ff 	movsbl -0xb2(%rbp),%ecx
ffffffffffe0392c:	48 8b 85 f0 fe ff ff 	mov    -0x110(%rbp),%rax
ffffffffffe03933:	41 89 c2             	mov    %eax,%r10d
ffffffffffe03936:	8b bd 48 ff ff ff    	mov    -0xb8(%rbp),%edi
ffffffffffe0393c:	48 8b b5 38 ff ff ff 	mov    -0xc8(%rbp),%rsi
ffffffffffe03943:	48 8d 85 10 ff ff ff 	lea    -0xf0(%rbp),%rax
ffffffffffe0394a:	48 83 ec 08          	sub    $0x8,%rsp
ffffffffffe0394e:	6a 01                	pushq  $0x1
ffffffffffe03950:	6a 00                	pushq  $0x0
ffffffffffe03952:	52                   	push   %rdx
ffffffffffe03953:	41 89 f9             	mov    %edi,%r9d
ffffffffffe03956:	41 89 c8             	mov    %ecx,%r8d
ffffffffffe03959:	44 89 d1             	mov    %r10d,%ecx
ffffffffffe0395c:	ba 10 00 00 00       	mov    $0x10,%edx
ffffffffffe03961:	48 89 c7             	mov    %rax,%rdi
ffffffffffe03964:	e8 26 f2 ff ff       	callq  ffffffffffe02b8f <fmt_number>
ffffffffffe03969:	48 83 c4 20          	add    $0x20,%rsp
ffffffffffe0396d:	e9 7d 01 00 00       	jmpq   ffffffffffe03aef <printf+0xd2e>
ffffffffffe03972:	83 bd 44 ff ff ff 00 	cmpl   $0x0,-0xbc(%rbp)
ffffffffffe03979:	74 27                	je     ffffffffffe039a2 <printf+0xbe1>
ffffffffffe0397b:	48 8b 85 10 ff ff ff 	mov    -0xf0(%rbp),%rax
ffffffffffe03982:	48 8d 50 01          	lea    0x1(%rax),%rdx
ffffffffffe03986:	48 89 95 10 ff ff ff 	mov    %rdx,-0xf0(%rbp)
ffffffffffe0398d:	c6 00 30             	movb   $0x30,(%rax)
ffffffffffe03990:	48 8b 85 f0 fe ff ff 	mov    -0x110(%rbp),%rax
ffffffffffe03997:	48 83 e8 01          	sub    $0x1,%rax
ffffffffffe0399b:	48 89 85 f0 fe ff ff 	mov    %rax,-0x110(%rbp)
ffffffffffe039a2:	0f be 95 4f ff ff ff 	movsbl -0xb1(%rbp),%edx
ffffffffffe039a9:	0f be 8d 4e ff ff ff 	movsbl -0xb2(%rbp),%ecx
ffffffffffe039b0:	48 8b 85 f0 fe ff ff 	mov    -0x110(%rbp),%rax
ffffffffffe039b7:	41 89 c2             	mov    %eax,%r10d
ffffffffffe039ba:	8b bd 48 ff ff ff    	mov    -0xb8(%rbp),%edi
ffffffffffe039c0:	48 8b b5 38 ff ff ff 	mov    -0xc8(%rbp),%rsi
ffffffffffe039c7:	48 8d 85 10 ff ff ff 	lea    -0xf0(%rbp),%rax
ffffffffffe039ce:	48 83 ec 08          	sub    $0x8,%rsp
ffffffffffe039d2:	6a 00                	pushq  $0x0
ffffffffffe039d4:	6a 00                	pushq  $0x0
ffffffffffe039d6:	52                   	push   %rdx
ffffffffffe039d7:	41 89 f9             	mov    %edi,%r9d
ffffffffffe039da:	41 89 c8             	mov    %ecx,%r8d
ffffffffffe039dd:	44 89 d1             	mov    %r10d,%ecx
ffffffffffe039e0:	ba 08 00 00 00       	mov    $0x8,%edx
ffffffffffe039e5:	48 89 c7             	mov    %rax,%rdi
ffffffffffe039e8:	e8 a2 f1 ff ff       	callq  ffffffffffe02b8f <fmt_number>
ffffffffffe039ed:	48 83 c4 20          	add    $0x20,%rsp
ffffffffffe039f1:	e9 f9 00 00 00       	jmpq   ffffffffffe03aef <printf+0xd2e>
ffffffffffe039f6:	48 83 bd 38 ff ff ff 	cmpq   $0x0,-0xc8(%rbp)
ffffffffffe039fd:	00 
ffffffffffe039fe:	0f 85 80 00 00 00    	jne    ffffffffffe03a84 <printf+0xcc3>
ffffffffffe03a04:	48 8b 85 10 ff ff ff 	mov    -0xf0(%rbp),%rax
ffffffffffe03a0b:	48 8d 50 01          	lea    0x1(%rax),%rdx
ffffffffffe03a0f:	48 89 95 10 ff ff ff 	mov    %rdx,-0xf0(%rbp)
ffffffffffe03a16:	c6 00 28             	movb   $0x28,(%rax)
ffffffffffe03a19:	48 8b 85 10 ff ff ff 	mov    -0xf0(%rbp),%rax
ffffffffffe03a20:	48 8d 50 01          	lea    0x1(%rax),%rdx
ffffffffffe03a24:	48 89 95 10 ff ff ff 	mov    %rdx,-0xf0(%rbp)
ffffffffffe03a2b:	c6 00 6e             	movb   $0x6e,(%rax)
ffffffffffe03a2e:	48 8b 85 10 ff ff ff 	mov    -0xf0(%rbp),%rax
ffffffffffe03a35:	48 8d 50 01          	lea    0x1(%rax),%rdx
ffffffffffe03a39:	48 89 95 10 ff ff ff 	mov    %rdx,-0xf0(%rbp)
ffffffffffe03a40:	c6 00 75             	movb   $0x75,(%rax)
ffffffffffe03a43:	48 8b 85 10 ff ff ff 	mov    -0xf0(%rbp),%rax
ffffffffffe03a4a:	48 8d 50 01          	lea    0x1(%rax),%rdx
ffffffffffe03a4e:	48 89 95 10 ff ff ff 	mov    %rdx,-0xf0(%rbp)
ffffffffffe03a55:	c6 00 6c             	movb   $0x6c,(%rax)
ffffffffffe03a58:	48 8b 85 10 ff ff ff 	mov    -0xf0(%rbp),%rax
ffffffffffe03a5f:	48 8d 50 01          	lea    0x1(%rax),%rdx
ffffffffffe03a63:	48 89 95 10 ff ff ff 	mov    %rdx,-0xf0(%rbp)
ffffffffffe03a6a:	c6 00 6c             	movb   $0x6c,(%rax)
ffffffffffe03a6d:	48 8b 85 10 ff ff ff 	mov    -0xf0(%rbp),%rax
ffffffffffe03a74:	48 8d 50 01          	lea    0x1(%rax),%rdx
ffffffffffe03a78:	48 89 95 10 ff ff ff 	mov    %rdx,-0xf0(%rbp)
ffffffffffe03a7f:	c6 00 29             	movb   $0x29,(%rax)
ffffffffffe03a82:	eb 6a                	jmp    ffffffffffe03aee <printf+0xd2d>
ffffffffffe03a84:	48 8b 85 10 ff ff ff 	mov    -0xf0(%rbp),%rax
ffffffffffe03a8b:	48 8d 50 01          	lea    0x1(%rax),%rdx
ffffffffffe03a8f:	48 89 95 10 ff ff ff 	mov    %rdx,-0xf0(%rbp)
ffffffffffe03a96:	c6 00 30             	movb   $0x30,(%rax)
ffffffffffe03a99:	48 8b 85 10 ff ff ff 	mov    -0xf0(%rbp),%rax
ffffffffffe03aa0:	48 8d 50 01          	lea    0x1(%rax),%rdx
ffffffffffe03aa4:	48 89 95 10 ff ff ff 	mov    %rdx,-0xf0(%rbp)
ffffffffffe03aab:	c6 00 78             	movb   $0x78,(%rax)
ffffffffffe03aae:	0f be 95 4f ff ff ff 	movsbl -0xb1(%rbp),%edx
ffffffffffe03ab5:	48 8b b5 38 ff ff ff 	mov    -0xc8(%rbp),%rsi
ffffffffffe03abc:	48 8d 85 10 ff ff ff 	lea    -0xf0(%rbp),%rax
ffffffffffe03ac3:	48 83 ec 08          	sub    $0x8,%rsp
ffffffffffe03ac7:	6a 00                	pushq  $0x0
ffffffffffe03ac9:	6a 00                	pushq  $0x0
ffffffffffe03acb:	52                   	push   %rdx
ffffffffffe03acc:	41 b9 01 00 00 00    	mov    $0x1,%r9d
ffffffffffe03ad2:	41 b8 30 00 00 00    	mov    $0x30,%r8d
ffffffffffe03ad8:	b9 10 00 00 00       	mov    $0x10,%ecx
ffffffffffe03add:	ba 10 00 00 00       	mov    $0x10,%edx
ffffffffffe03ae2:	48 89 c7             	mov    %rax,%rdi
ffffffffffe03ae5:	e8 a5 f0 ff ff       	callq  ffffffffffe02b8f <fmt_number>
ffffffffffe03aea:	48 83 c4 20          	add    $0x20,%rsp
ffffffffffe03aee:	90                   	nop
ffffffffffe03aef:	48 83 85 d8 fe ff ff 	addq   $0x1,-0x128(%rbp)
ffffffffffe03af6:	01 
ffffffffffe03af7:	48 8b 85 d8 fe ff ff 	mov    -0x128(%rbp),%rax
ffffffffffe03afe:	0f b6 00             	movzbl (%rax),%eax
ffffffffffe03b01:	84 c0                	test   %al,%al
ffffffffffe03b03:	0f 85 51 f3 ff ff    	jne    ffffffffffe02e5a <printf+0x99>
ffffffffffe03b09:	eb 19                	jmp    ffffffffffe03b24 <printf+0xd63>
ffffffffffe03b0b:	90                   	nop
ffffffffffe03b0c:	eb 16                	jmp    ffffffffffe03b24 <printf+0xd63>
ffffffffffe03b0e:	90                   	nop
ffffffffffe03b0f:	eb 13                	jmp    ffffffffffe03b24 <printf+0xd63>
ffffffffffe03b11:	90                   	nop
ffffffffffe03b12:	eb 10                	jmp    ffffffffffe03b24 <printf+0xd63>
ffffffffffe03b14:	90                   	nop
ffffffffffe03b15:	eb 0d                	jmp    ffffffffffe03b24 <printf+0xd63>
ffffffffffe03b17:	90                   	nop
ffffffffffe03b18:	eb 0a                	jmp    ffffffffffe03b24 <printf+0xd63>
ffffffffffe03b1a:	90                   	nop
ffffffffffe03b1b:	eb 07                	jmp    ffffffffffe03b24 <printf+0xd63>
ffffffffffe03b1d:	90                   	nop
ffffffffffe03b1e:	eb 04                	jmp    ffffffffffe03b24 <printf+0xd63>
ffffffffffe03b20:	90                   	nop
ffffffffffe03b21:	eb 01                	jmp    ffffffffffe03b24 <printf+0xd63>
ffffffffffe03b23:	90                   	nop
ffffffffffe03b24:	48 8b 85 10 ff ff ff 	mov    -0xf0(%rbp),%rax
ffffffffffe03b2b:	48 8d 15 ee 3d 00 00 	lea    0x3dee(%rip),%rdx        # ffffffffffe07920 <ibuf.0>
ffffffffffe03b32:	48 29 d0             	sub    %rdx,%rax
ffffffffffe03b35:	89 85 1c ff ff ff    	mov    %eax,-0xe4(%rbp)
ffffffffffe03b3b:	48 8b 85 10 ff ff ff 	mov    -0xf0(%rbp),%rax
ffffffffffe03b42:	48 8d 50 01          	lea    0x1(%rax),%rdx
ffffffffffe03b46:	48 89 95 10 ff ff ff 	mov    %rdx,-0xf0(%rbp)
ffffffffffe03b4d:	c6 00 00             	movb   $0x0,(%rax)
ffffffffffe03b50:	48 8d 05 c9 3d 00 00 	lea    0x3dc9(%rip),%rax        # ffffffffffe07920 <ibuf.0>
ffffffffffe03b57:	48 89 c7             	mov    %rax,%rdi
ffffffffffe03b5a:	e8 66 ee ff ff       	callq  ffffffffffe029c5 <puts>
ffffffffffe03b5f:	8b 85 1c ff ff ff    	mov    -0xe4(%rbp),%eax
ffffffffffe03b65:	c9                   	leaveq 
ffffffffffe03b66:	c3                   	retq   

ffffffffffe03b67 <printword>:
ffffffffffe03b67:	55                   	push   %rbp
ffffffffffe03b68:	48 89 e5             	mov    %rsp,%rbp
ffffffffffe03b6b:	48 83 ec 20          	sub    $0x20,%rsp
ffffffffffe03b6f:	48 89 7d e8          	mov    %rdi,-0x18(%rbp)
ffffffffffe03b73:	48 89 75 e0          	mov    %rsi,-0x20(%rbp)
ffffffffffe03b77:	48 8b 45 e8          	mov    -0x18(%rbp),%rax
ffffffffffe03b7b:	48 89 c6             	mov    %rax,%rsi
ffffffffffe03b7e:	48 8d 05 67 2c 00 00 	lea    0x2c67(%rip),%rax        # ffffffffffe067ec <set_timeslice_len+0x159>
ffffffffffe03b85:	48 89 c7             	mov    %rax,%rdi
ffffffffffe03b88:	b8 00 00 00 00       	mov    $0x0,%eax
ffffffffffe03b8d:	e8 2f f2 ff ff       	callq  ffffffffffe02dc1 <printf>
ffffffffffe03b92:	c7 45 fc 00 00 00 00 	movl   $0x0,-0x4(%rbp)
ffffffffffe03b99:	e9 80 00 00 00       	jmpq   ffffffffffe03c1e <printword+0xb7>
ffffffffffe03b9e:	8b 45 fc             	mov    -0x4(%rbp),%eax
ffffffffffe03ba1:	48 8b 55 e0          	mov    -0x20(%rbp),%rdx
ffffffffffe03ba5:	89 c1                	mov    %eax,%ecx
ffffffffffe03ba7:	48 d3 ea             	shr    %cl,%rdx
ffffffffffe03baa:	48 89 d0             	mov    %rdx,%rax
ffffffffffe03bad:	83 e0 01             	and    $0x1,%eax
ffffffffffe03bb0:	89 45 f8             	mov    %eax,-0x8(%rbp)
ffffffffffe03bb3:	83 7d f8 00          	cmpl   $0x0,-0x8(%rbp)
ffffffffffe03bb7:	74 09                	je     ffffffffffe03bc2 <printword+0x5b>
ffffffffffe03bb9:	48 8d 05 31 2c 00 00 	lea    0x2c31(%rip),%rax        # ffffffffffe067f1 <set_timeslice_len+0x15e>
ffffffffffe03bc0:	eb 07                	jmp    ffffffffffe03bc9 <printword+0x62>
ffffffffffe03bc2:	48 8d 05 2a 2c 00 00 	lea    0x2c2a(%rip),%rax        # ffffffffffe067f3 <set_timeslice_len+0x160>
ffffffffffe03bc9:	48 89 c7             	mov    %rax,%rdi
ffffffffffe03bcc:	b8 00 00 00 00       	mov    $0x0,%eax
ffffffffffe03bd1:	e8 eb f1 ff ff       	callq  ffffffffffe02dc1 <printf>
ffffffffffe03bd6:	8b 45 fc             	mov    -0x4(%rbp),%eax
ffffffffffe03bd9:	83 c0 01             	add    $0x1,%eax
ffffffffffe03bdc:	83 e0 07             	and    $0x7,%eax
ffffffffffe03bdf:	85 c0                	test   %eax,%eax
ffffffffffe03be1:	75 16                	jne    ffffffffffe03bf9 <printword+0x92>
ffffffffffe03be3:	48 8d 05 0b 2c 00 00 	lea    0x2c0b(%rip),%rax        # ffffffffffe067f5 <set_timeslice_len+0x162>
ffffffffffe03bea:	48 89 c7             	mov    %rax,%rdi
ffffffffffe03bed:	b8 00 00 00 00       	mov    $0x0,%eax
ffffffffffe03bf2:	e8 ca f1 ff ff       	callq  ffffffffffe02dc1 <printf>
ffffffffffe03bf7:	eb 21                	jmp    ffffffffffe03c1a <printword+0xb3>
ffffffffffe03bf9:	8b 45 fc             	mov    -0x4(%rbp),%eax
ffffffffffe03bfc:	83 c0 01             	add    $0x1,%eax
ffffffffffe03bff:	83 e0 03             	and    $0x3,%eax
ffffffffffe03c02:	85 c0                	test   %eax,%eax
ffffffffffe03c04:	75 14                	jne    ffffffffffe03c1a <printword+0xb3>
ffffffffffe03c06:	48 8d 05 ea 2b 00 00 	lea    0x2bea(%rip),%rax        # ffffffffffe067f7 <set_timeslice_len+0x164>
ffffffffffe03c0d:	48 89 c7             	mov    %rax,%rdi
ffffffffffe03c10:	b8 00 00 00 00       	mov    $0x0,%eax
ffffffffffe03c15:	e8 a7 f1 ff ff       	callq  ffffffffffe02dc1 <printf>
ffffffffffe03c1a:	83 45 fc 01          	addl   $0x1,-0x4(%rbp)
ffffffffffe03c1e:	83 7d fc 3f          	cmpl   $0x3f,-0x4(%rbp)
ffffffffffe03c22:	0f 8e 76 ff ff ff    	jle    ffffffffffe03b9e <printword+0x37>
ffffffffffe03c28:	48 8d 05 ca 2b 00 00 	lea    0x2bca(%rip),%rax        # ffffffffffe067f9 <set_timeslice_len+0x166>
ffffffffffe03c2f:	48 89 c7             	mov    %rax,%rdi
ffffffffffe03c32:	b8 00 00 00 00       	mov    $0x0,%eax
ffffffffffe03c37:	e8 85 f1 ff ff       	callq  ffffffffffe02dc1 <printf>
ffffffffffe03c3c:	90                   	nop
ffffffffffe03c3d:	c9                   	leaveq 
ffffffffffe03c3e:	c3                   	retq   

ffffffffffe03c3f <printbuf>:
ffffffffffe03c3f:	55                   	push   %rbp
ffffffffffe03c40:	48 89 e5             	mov    %rsp,%rbp
ffffffffffe03c43:	48 83 ec 30          	sub    $0x30,%rsp
ffffffffffe03c47:	48 89 7d e8          	mov    %rdi,-0x18(%rbp)
ffffffffffe03c4b:	48 89 75 e0          	mov    %rsi,-0x20(%rbp)
ffffffffffe03c4f:	48 89 55 d8          	mov    %rdx,-0x28(%rbp)
ffffffffffe03c53:	48 8b 45 e8          	mov    -0x18(%rbp),%rax
ffffffffffe03c57:	48 89 c6             	mov    %rax,%rsi
ffffffffffe03c5a:	48 8d 05 9a 2b 00 00 	lea    0x2b9a(%rip),%rax        # ffffffffffe067fb <set_timeslice_len+0x168>
ffffffffffe03c61:	48 89 c7             	mov    %rax,%rdi
ffffffffffe03c64:	b8 00 00 00 00       	mov    $0x0,%eax
ffffffffffe03c69:	e8 53 f1 ff ff       	callq  ffffffffffe02dc1 <printf>
ffffffffffe03c6e:	48 8b 45 e0          	mov    -0x20(%rbp),%rax
ffffffffffe03c72:	48 89 45 f0          	mov    %rax,-0x10(%rbp)
ffffffffffe03c76:	48 c7 45 f8 00 00 00 	movq   $0x0,-0x8(%rbp)
ffffffffffe03c7d:	00 
ffffffffffe03c7e:	e9 9d 00 00 00       	jmpq   ffffffffffe03d20 <printbuf+0xe1>
ffffffffffe03c83:	48 8b 45 f8          	mov    -0x8(%rbp),%rax
ffffffffffe03c87:	83 e0 0f             	and    $0xf,%eax
ffffffffffe03c8a:	48 85 c0             	test   %rax,%rax
ffffffffffe03c8d:	75 1b                	jne    ffffffffffe03caa <printbuf+0x6b>
ffffffffffe03c8f:	48 8b 45 f8          	mov    -0x8(%rbp),%rax
ffffffffffe03c93:	48 89 c6             	mov    %rax,%rsi
ffffffffffe03c96:	48 8d 05 6a 2b 00 00 	lea    0x2b6a(%rip),%rax        # ffffffffffe06807 <set_timeslice_len+0x174>
ffffffffffe03c9d:	48 89 c7             	mov    %rax,%rdi
ffffffffffe03ca0:	b8 00 00 00 00       	mov    $0x0,%eax
ffffffffffe03ca5:	e8 17 f1 ff ff       	callq  ffffffffffe02dc1 <printf>
ffffffffffe03caa:	48 8b 55 f0          	mov    -0x10(%rbp),%rdx
ffffffffffe03cae:	48 8b 45 f8          	mov    -0x8(%rbp),%rax
ffffffffffe03cb2:	48 01 d0             	add    %rdx,%rax
ffffffffffe03cb5:	0f b6 00             	movzbl (%rax),%eax
ffffffffffe03cb8:	0f b6 c0             	movzbl %al,%eax
ffffffffffe03cbb:	89 c6                	mov    %eax,%esi
ffffffffffe03cbd:	48 8d 05 4d 2b 00 00 	lea    0x2b4d(%rip),%rax        # ffffffffffe06811 <set_timeslice_len+0x17e>
ffffffffffe03cc4:	48 89 c7             	mov    %rax,%rdi
ffffffffffe03cc7:	b8 00 00 00 00       	mov    $0x0,%eax
ffffffffffe03ccc:	e8 f0 f0 ff ff       	callq  ffffffffffe02dc1 <printf>
ffffffffffe03cd1:	48 8b 45 f8          	mov    -0x8(%rbp),%rax
ffffffffffe03cd5:	48 83 c0 01          	add    $0x1,%rax
ffffffffffe03cd9:	83 e0 0f             	and    $0xf,%eax
ffffffffffe03cdc:	48 85 c0             	test   %rax,%rax
ffffffffffe03cdf:	75 16                	jne    ffffffffffe03cf7 <printbuf+0xb8>
ffffffffffe03ce1:	48 8d 05 11 2b 00 00 	lea    0x2b11(%rip),%rax        # ffffffffffe067f9 <set_timeslice_len+0x166>
ffffffffffe03ce8:	48 89 c7             	mov    %rax,%rdi
ffffffffffe03ceb:	b8 00 00 00 00       	mov    $0x0,%eax
ffffffffffe03cf0:	e8 cc f0 ff ff       	callq  ffffffffffe02dc1 <printf>
ffffffffffe03cf5:	eb 24                	jmp    ffffffffffe03d1b <printbuf+0xdc>
ffffffffffe03cf7:	48 8b 45 f8          	mov    -0x8(%rbp),%rax
ffffffffffe03cfb:	48 83 c0 01          	add    $0x1,%rax
ffffffffffe03cff:	83 e0 07             	and    $0x7,%eax
ffffffffffe03d02:	48 85 c0             	test   %rax,%rax
ffffffffffe03d05:	75 14                	jne    ffffffffffe03d1b <printbuf+0xdc>
ffffffffffe03d07:	48 8d 05 e7 2a 00 00 	lea    0x2ae7(%rip),%rax        # ffffffffffe067f5 <set_timeslice_len+0x162>
ffffffffffe03d0e:	48 89 c7             	mov    %rax,%rdi
ffffffffffe03d11:	b8 00 00 00 00       	mov    $0x0,%eax
ffffffffffe03d16:	e8 a6 f0 ff ff       	callq  ffffffffffe02dc1 <printf>
ffffffffffe03d1b:	48 83 45 f8 01       	addq   $0x1,-0x8(%rbp)
ffffffffffe03d20:	48 8b 45 f8          	mov    -0x8(%rbp),%rax
ffffffffffe03d24:	48 3b 45 d8          	cmp    -0x28(%rbp),%rax
ffffffffffe03d28:	0f 82 55 ff ff ff    	jb     ffffffffffe03c83 <printbuf+0x44>
ffffffffffe03d2e:	48 8d 05 c4 2a 00 00 	lea    0x2ac4(%rip),%rax        # ffffffffffe067f9 <set_timeslice_len+0x166>
ffffffffffe03d35:	48 89 c7             	mov    %rax,%rdi
ffffffffffe03d38:	b8 00 00 00 00       	mov    $0x0,%eax
ffffffffffe03d3d:	e8 7f f0 ff ff       	callq  ffffffffffe02dc1 <printf>
ffffffffffe03d42:	90                   	nop
ffffffffffe03d43:	c9                   	leaveq 
ffffffffffe03d44:	c3                   	retq   

ffffffffffe03d45 <print_off>:
ffffffffffe03d45:	55                   	push   %rbp
ffffffffffe03d46:	48 89 e5             	mov    %rsp,%rbp
ffffffffffe03d49:	48 83 ec 30          	sub    $0x30,%rsp
ffffffffffe03d4d:	48 89 7d e8          	mov    %rdi,-0x18(%rbp)
ffffffffffe03d51:	48 89 75 e0          	mov    %rsi,-0x20(%rbp)
ffffffffffe03d55:	48 89 55 d8          	mov    %rdx,-0x28(%rbp)
ffffffffffe03d59:	48 8b 45 e8          	mov    -0x18(%rbp),%rax
ffffffffffe03d5d:	48 89 45 f8          	mov    %rax,-0x8(%rbp)
ffffffffffe03d61:	48 8b 45 e0          	mov    -0x20(%rbp),%rax
ffffffffffe03d65:	48 89 45 f0          	mov    %rax,-0x10(%rbp)
ffffffffffe03d69:	48 8b 45 f8          	mov    -0x8(%rbp),%rax
ffffffffffe03d6d:	48 3b 45 f0          	cmp    -0x10(%rbp),%rax
ffffffffffe03d71:	76 2b                	jbe    ffffffffffe03d9e <print_off+0x59>
ffffffffffe03d73:	48 8b 45 f8          	mov    -0x8(%rbp),%rax
ffffffffffe03d77:	48 2b 45 f0          	sub    -0x10(%rbp),%rax
ffffffffffe03d7b:	48 89 c1             	mov    %rax,%rcx
ffffffffffe03d7e:	48 8b 45 d8          	mov    -0x28(%rbp),%rax
ffffffffffe03d82:	48 89 c2             	mov    %rax,%rdx
ffffffffffe03d85:	48 89 ce             	mov    %rcx,%rsi
ffffffffffe03d88:	48 8d 05 89 2a 00 00 	lea    0x2a89(%rip),%rax        # ffffffffffe06818 <set_timeslice_len+0x185>
ffffffffffe03d8f:	48 89 c7             	mov    %rax,%rdi
ffffffffffe03d92:	b8 00 00 00 00       	mov    $0x0,%eax
ffffffffffe03d97:	e8 25 f0 ff ff       	callq  ffffffffffe02dc1 <printf>
ffffffffffe03d9c:	eb 50                	jmp    ffffffffffe03dee <print_off+0xa9>
ffffffffffe03d9e:	48 8b 45 f8          	mov    -0x8(%rbp),%rax
ffffffffffe03da2:	48 3b 45 f0          	cmp    -0x10(%rbp),%rax
ffffffffffe03da6:	75 1d                	jne    ffffffffffe03dc5 <print_off+0x80>
ffffffffffe03da8:	48 8b 45 d8          	mov    -0x28(%rbp),%rax
ffffffffffe03dac:	48 89 c6             	mov    %rax,%rsi
ffffffffffe03daf:	48 8d 05 6f 2a 00 00 	lea    0x2a6f(%rip),%rax        # ffffffffffe06825 <set_timeslice_len+0x192>
ffffffffffe03db6:	48 89 c7             	mov    %rax,%rdi
ffffffffffe03db9:	b8 00 00 00 00       	mov    $0x0,%eax
ffffffffffe03dbe:	e8 fe ef ff ff       	callq  ffffffffffe02dc1 <printf>
ffffffffffe03dc3:	eb 29                	jmp    ffffffffffe03dee <print_off+0xa9>
ffffffffffe03dc5:	48 8b 45 f0          	mov    -0x10(%rbp),%rax
ffffffffffe03dc9:	48 2b 45 f8          	sub    -0x8(%rbp),%rax
ffffffffffe03dcd:	48 89 c1             	mov    %rax,%rcx
ffffffffffe03dd0:	48 8b 45 d8          	mov    -0x28(%rbp),%rax
ffffffffffe03dd4:	48 89 c2             	mov    %rax,%rdx
ffffffffffe03dd7:	48 89 ce             	mov    %rcx,%rsi
ffffffffffe03dda:	48 8d 05 4f 2a 00 00 	lea    0x2a4f(%rip),%rax        # ffffffffffe06830 <set_timeslice_len+0x19d>
ffffffffffe03de1:	48 89 c7             	mov    %rax,%rdi
ffffffffffe03de4:	b8 00 00 00 00       	mov    $0x0,%eax
ffffffffffe03de9:	e8 d3 ef ff ff       	callq  ffffffffffe02dc1 <printf>
ffffffffffe03dee:	90                   	nop
ffffffffffe03def:	c9                   	leaveq 
ffffffffffe03df0:	c3                   	retq   

ffffffffffe03df1 <print_stack>:
ffffffffffe03df1:	55                   	push   %rbp
ffffffffffe03df2:	48 89 e5             	mov    %rsp,%rbp
ffffffffffe03df5:	48 83 ec 20          	sub    $0x20,%rsp
ffffffffffe03df9:	48 89 7d e8          	mov    %rdi,-0x18(%rbp)
ffffffffffe03dfd:	48 89 75 e0          	mov    %rsi,-0x20(%rbp)
ffffffffffe03e01:	48 8b 45 e8          	mov    -0x18(%rbp),%rax
ffffffffffe03e05:	48 05 ff 0f 00 00    	add    $0xfff,%rax
ffffffffffe03e0b:	48 25 00 f0 ff ff    	and    $0xfffffffffffff000,%rax
ffffffffffe03e11:	48 8b 55 e8          	mov    -0x18(%rbp),%rdx
ffffffffffe03e15:	48 29 d0             	sub    %rdx,%rax
ffffffffffe03e18:	48 c1 e8 03          	shr    $0x3,%rax
ffffffffffe03e1c:	89 45 f4             	mov    %eax,-0xc(%rbp)
ffffffffffe03e1f:	48 8d 05 17 2a 00 00 	lea    0x2a17(%rip),%rax        # ffffffffffe0683d <set_timeslice_len+0x1aa>
ffffffffffe03e26:	48 89 c7             	mov    %rax,%rdi
ffffffffffe03e29:	b8 00 00 00 00       	mov    $0x0,%eax
ffffffffffe03e2e:	e8 8e ef ff ff       	callq  ffffffffffe02dc1 <printf>
ffffffffffe03e33:	8b 45 f4             	mov    -0xc(%rbp),%eax
ffffffffffe03e36:	83 e8 01             	sub    $0x1,%eax
ffffffffffe03e39:	89 45 fc             	mov    %eax,-0x4(%rbp)
ffffffffffe03e3c:	e9 fd 00 00 00       	jmpq   ffffffffffe03f3e <print_stack+0x14d>
ffffffffffe03e41:	8b 45 fc             	mov    -0x4(%rbp),%eax
ffffffffffe03e44:	48 98                	cltq   
ffffffffffe03e46:	48 8d 14 c5 00 00 00 	lea    0x0(,%rax,8),%rdx
ffffffffffe03e4d:	00 
ffffffffffe03e4e:	48 8b 45 e8          	mov    -0x18(%rbp),%rax
ffffffffffe03e52:	48 01 d0             	add    %rdx,%rax
ffffffffffe03e55:	48 89 c6             	mov    %rax,%rsi
ffffffffffe03e58:	48 8d 05 f7 29 00 00 	lea    0x29f7(%rip),%rax        # ffffffffffe06856 <set_timeslice_len+0x1c3>
ffffffffffe03e5f:	48 89 c7             	mov    %rax,%rdi
ffffffffffe03e62:	b8 00 00 00 00       	mov    $0x0,%eax
ffffffffffe03e67:	e8 55 ef ff ff       	callq  ffffffffffe02dc1 <printf>
ffffffffffe03e6c:	8b 45 fc             	mov    -0x4(%rbp),%eax
ffffffffffe03e6f:	48 98                	cltq   
ffffffffffe03e71:	48 8d 14 c5 00 00 00 	lea    0x0(,%rax,8),%rdx
ffffffffffe03e78:	00 
ffffffffffe03e79:	48 8b 45 e8          	mov    -0x18(%rbp),%rax
ffffffffffe03e7d:	48 8d 0c 02          	lea    (%rdx,%rax,1),%rcx
ffffffffffe03e81:	48 8b 45 e0          	mov    -0x20(%rbp),%rax
ffffffffffe03e85:	48 8d 15 ce 29 00 00 	lea    0x29ce(%rip),%rdx        # ffffffffffe0685a <set_timeslice_len+0x1c7>
ffffffffffe03e8c:	48 89 ce             	mov    %rcx,%rsi
ffffffffffe03e8f:	48 89 c7             	mov    %rax,%rdi
ffffffffffe03e92:	e8 ae fe ff ff       	callq  ffffffffffe03d45 <print_off>
ffffffffffe03e97:	8b 45 fc             	mov    -0x4(%rbp),%eax
ffffffffffe03e9a:	48 98                	cltq   
ffffffffffe03e9c:	48 8d 14 c5 00 00 00 	lea    0x0(,%rax,8),%rdx
ffffffffffe03ea3:	00 
ffffffffffe03ea4:	48 8b 45 e8          	mov    -0x18(%rbp),%rax
ffffffffffe03ea8:	48 8d 0c 02          	lea    (%rdx,%rax,1),%rcx
ffffffffffe03eac:	48 8b 45 e8          	mov    -0x18(%rbp),%rax
ffffffffffe03eb0:	48 8d 15 a7 29 00 00 	lea    0x29a7(%rip),%rdx        # ffffffffffe0685e <set_timeslice_len+0x1cb>
ffffffffffe03eb7:	48 89 ce             	mov    %rcx,%rsi
ffffffffffe03eba:	48 89 c7             	mov    %rax,%rdi
ffffffffffe03ebd:	e8 83 fe ff ff       	callq  ffffffffffe03d45 <print_off>
ffffffffffe03ec2:	8b 45 fc             	mov    -0x4(%rbp),%eax
ffffffffffe03ec5:	48 98                	cltq   
ffffffffffe03ec7:	48 8d 14 c5 00 00 00 	lea    0x0(,%rax,8),%rdx
ffffffffffe03ece:	00 
ffffffffffe03ecf:	48 8b 45 e8          	mov    -0x18(%rbp),%rax
ffffffffffe03ed3:	48 01 d0             	add    %rdx,%rax
ffffffffffe03ed6:	48 39 45 e0          	cmp    %rax,-0x20(%rbp)
ffffffffffe03eda:	75 30                	jne    ffffffffffe03f0c <print_stack+0x11b>
ffffffffffe03edc:	8b 45 fc             	mov    -0x4(%rbp),%eax
ffffffffffe03edf:	48 98                	cltq   
ffffffffffe03ee1:	48 8d 14 c5 00 00 00 	lea    0x0(,%rax,8),%rdx
ffffffffffe03ee8:	00 
ffffffffffe03ee9:	48 8b 45 e8          	mov    -0x18(%rbp),%rax
ffffffffffe03eed:	48 01 d0             	add    %rdx,%rax
ffffffffffe03ef0:	48 8b 00             	mov    (%rax),%rax
ffffffffffe03ef3:	48 89 c6             	mov    %rax,%rsi
ffffffffffe03ef6:	48 8d 05 65 29 00 00 	lea    0x2965(%rip),%rax        # ffffffffffe06862 <set_timeslice_len+0x1cf>
ffffffffffe03efd:	48 89 c7             	mov    %rax,%rdi
ffffffffffe03f00:	b8 00 00 00 00       	mov    $0x0,%eax
ffffffffffe03f05:	e8 b7 ee ff ff       	callq  ffffffffffe02dc1 <printf>
ffffffffffe03f0a:	eb 2e                	jmp    ffffffffffe03f3a <print_stack+0x149>
ffffffffffe03f0c:	8b 45 fc             	mov    -0x4(%rbp),%eax
ffffffffffe03f0f:	48 98                	cltq   
ffffffffffe03f11:	48 8d 14 c5 00 00 00 	lea    0x0(,%rax,8),%rdx
ffffffffffe03f18:	00 
ffffffffffe03f19:	48 8b 45 e8          	mov    -0x18(%rbp),%rax
ffffffffffe03f1d:	48 01 d0             	add    %rdx,%rax
ffffffffffe03f20:	48 8b 00             	mov    (%rax),%rax
ffffffffffe03f23:	48 89 c6             	mov    %rax,%rsi
ffffffffffe03f26:	48 8d 05 3e 29 00 00 	lea    0x293e(%rip),%rax        # ffffffffffe0686b <set_timeslice_len+0x1d8>
ffffffffffe03f2d:	48 89 c7             	mov    %rax,%rdi
ffffffffffe03f30:	b8 00 00 00 00       	mov    $0x0,%eax
ffffffffffe03f35:	e8 87 ee ff ff       	callq  ffffffffffe02dc1 <printf>
ffffffffffe03f3a:	83 6d fc 01          	subl   $0x1,-0x4(%rbp)
ffffffffffe03f3e:	83 7d fc 00          	cmpl   $0x0,-0x4(%rbp)
ffffffffffe03f42:	0f 8f f9 fe ff ff    	jg     ffffffffffe03e41 <print_stack+0x50>
ffffffffffe03f48:	48 8b 45 e8          	mov    -0x18(%rbp),%rax
ffffffffffe03f4c:	48 89 c6             	mov    %rax,%rsi
ffffffffffe03f4f:	48 8d 05 00 29 00 00 	lea    0x2900(%rip),%rax        # ffffffffffe06856 <set_timeslice_len+0x1c3>
ffffffffffe03f56:	48 89 c7             	mov    %rax,%rdi
ffffffffffe03f59:	b8 00 00 00 00       	mov    $0x0,%eax
ffffffffffe03f5e:	e8 5e ee ff ff       	callq  ffffffffffe02dc1 <printf>
ffffffffffe03f63:	48 8b 4d e8          	mov    -0x18(%rbp),%rcx
ffffffffffe03f67:	48 8b 45 e0          	mov    -0x20(%rbp),%rax
ffffffffffe03f6b:	48 8d 15 e8 28 00 00 	lea    0x28e8(%rip),%rdx        # ffffffffffe0685a <set_timeslice_len+0x1c7>
ffffffffffe03f72:	48 89 ce             	mov    %rcx,%rsi
ffffffffffe03f75:	48 89 c7             	mov    %rax,%rdi
ffffffffffe03f78:	e8 c8 fd ff ff       	callq  ffffffffffe03d45 <print_off>
ffffffffffe03f7d:	48 8b 4d e8          	mov    -0x18(%rbp),%rcx
ffffffffffe03f81:	48 8b 45 e8          	mov    -0x18(%rbp),%rax
ffffffffffe03f85:	48 8d 15 d2 28 00 00 	lea    0x28d2(%rip),%rdx        # ffffffffffe0685e <set_timeslice_len+0x1cb>
ffffffffffe03f8c:	48 89 ce             	mov    %rcx,%rsi
ffffffffffe03f8f:	48 89 c7             	mov    %rax,%rdi
ffffffffffe03f92:	e8 ae fd ff ff       	callq  ffffffffffe03d45 <print_off>
ffffffffffe03f97:	48 8b 45 e8          	mov    -0x18(%rbp),%rax
ffffffffffe03f9b:	48 8b 00             	mov    (%rax),%rax
ffffffffffe03f9e:	48 89 c6             	mov    %rax,%rsi
ffffffffffe03fa1:	48 8d 05 cc 28 00 00 	lea    0x28cc(%rip),%rax        # ffffffffffe06874 <set_timeslice_len+0x1e1>
ffffffffffe03fa8:	48 89 c7             	mov    %rax,%rdi
ffffffffffe03fab:	b8 00 00 00 00       	mov    $0x0,%eax
ffffffffffe03fb0:	e8 0c ee ff ff       	callq  ffffffffffe02dc1 <printf>
ffffffffffe03fb5:	c7 45 f8 ff ff ff ff 	movl   $0xffffffff,-0x8(%rbp)
ffffffffffe03fbc:	e9 b3 00 00 00       	jmpq   ffffffffffe04074 <print_stack+0x283>
ffffffffffe03fc1:	8b 45 f8             	mov    -0x8(%rbp),%eax
ffffffffffe03fc4:	48 98                	cltq   
ffffffffffe03fc6:	48 8d 14 c5 00 00 00 	lea    0x0(,%rax,8),%rdx
ffffffffffe03fcd:	00 
ffffffffffe03fce:	48 8b 45 e8          	mov    -0x18(%rbp),%rax
ffffffffffe03fd2:	48 01 d0             	add    %rdx,%rax
ffffffffffe03fd5:	48 89 c6             	mov    %rax,%rsi
ffffffffffe03fd8:	48 8d 05 77 28 00 00 	lea    0x2877(%rip),%rax        # ffffffffffe06856 <set_timeslice_len+0x1c3>
ffffffffffe03fdf:	48 89 c7             	mov    %rax,%rdi
ffffffffffe03fe2:	b8 00 00 00 00       	mov    $0x0,%eax
ffffffffffe03fe7:	e8 d5 ed ff ff       	callq  ffffffffffe02dc1 <printf>
ffffffffffe03fec:	8b 45 f8             	mov    -0x8(%rbp),%eax
ffffffffffe03fef:	48 98                	cltq   
ffffffffffe03ff1:	48 8d 14 c5 00 00 00 	lea    0x0(,%rax,8),%rdx
ffffffffffe03ff8:	00 
ffffffffffe03ff9:	48 8b 45 e8          	mov    -0x18(%rbp),%rax
ffffffffffe03ffd:	48 8d 0c 02          	lea    (%rdx,%rax,1),%rcx
ffffffffffe04001:	48 8b 45 e0          	mov    -0x20(%rbp),%rax
ffffffffffe04005:	48 8d 15 4e 28 00 00 	lea    0x284e(%rip),%rdx        # ffffffffffe0685a <set_timeslice_len+0x1c7>
ffffffffffe0400c:	48 89 ce             	mov    %rcx,%rsi
ffffffffffe0400f:	48 89 c7             	mov    %rax,%rdi
ffffffffffe04012:	e8 2e fd ff ff       	callq  ffffffffffe03d45 <print_off>
ffffffffffe04017:	8b 45 f8             	mov    -0x8(%rbp),%eax
ffffffffffe0401a:	48 98                	cltq   
ffffffffffe0401c:	48 8d 14 c5 00 00 00 	lea    0x0(,%rax,8),%rdx
ffffffffffe04023:	00 
ffffffffffe04024:	48 8b 45 e8          	mov    -0x18(%rbp),%rax
ffffffffffe04028:	48 8d 0c 02          	lea    (%rdx,%rax,1),%rcx
ffffffffffe0402c:	48 8b 45 e8          	mov    -0x18(%rbp),%rax
ffffffffffe04030:	48 8d 15 27 28 00 00 	lea    0x2827(%rip),%rdx        # ffffffffffe0685e <set_timeslice_len+0x1cb>
ffffffffffe04037:	48 89 ce             	mov    %rcx,%rsi
ffffffffffe0403a:	48 89 c7             	mov    %rax,%rdi
ffffffffffe0403d:	e8 03 fd ff ff       	callq  ffffffffffe03d45 <print_off>
ffffffffffe04042:	8b 45 f8             	mov    -0x8(%rbp),%eax
ffffffffffe04045:	48 98                	cltq   
ffffffffffe04047:	48 8d 14 c5 00 00 00 	lea    0x0(,%rax,8),%rdx
ffffffffffe0404e:	00 
ffffffffffe0404f:	48 8b 45 e8          	mov    -0x18(%rbp),%rax
ffffffffffe04053:	48 01 d0             	add    %rdx,%rax
ffffffffffe04056:	48 8b 00             	mov    (%rax),%rax
ffffffffffe04059:	48 89 c6             	mov    %rax,%rsi
ffffffffffe0405c:	48 8d 05 08 28 00 00 	lea    0x2808(%rip),%rax        # ffffffffffe0686b <set_timeslice_len+0x1d8>
ffffffffffe04063:	48 89 c7             	mov    %rax,%rdi
ffffffffffe04066:	b8 00 00 00 00       	mov    $0x0,%eax
ffffffffffe0406b:	e8 51 ed ff ff       	callq  ffffffffffe02dc1 <printf>
ffffffffffe04070:	83 6d f8 01          	subl   $0x1,-0x8(%rbp)
ffffffffffe04074:	83 7d f8 f6          	cmpl   $0xfffffff6,-0x8(%rbp)
ffffffffffe04078:	0f 8d 43 ff ff ff    	jge    ffffffffffe03fc1 <print_stack+0x1d0>
ffffffffffe0407e:	90                   	nop
ffffffffffe0407f:	90                   	nop
ffffffffffe04080:	c9                   	leaveq 
ffffffffffe04081:	c3                   	retq   

ffffffffffe04082 <print_interrupt_frame>:
ffffffffffe04082:	55                   	push   %rbp
ffffffffffe04083:	48 89 e5             	mov    %rsp,%rbp
ffffffffffe04086:	48 83 ec 20          	sub    $0x20,%rsp
ffffffffffe0408a:	48 89 7d e8          	mov    %rdi,-0x18(%rbp)
ffffffffffe0408e:	48 89 75 e0          	mov    %rsi,-0x20(%rbp)
ffffffffffe04092:	48 8b 45 e8          	mov    -0x18(%rbp),%rax
ffffffffffe04096:	48 89 c6             	mov    %rax,%rsi
ffffffffffe04099:	48 8d 05 dd 27 00 00 	lea    0x27dd(%rip),%rax        # ffffffffffe0687d <set_timeslice_len+0x1ea>
ffffffffffe040a0:	48 89 c7             	mov    %rax,%rdi
ffffffffffe040a3:	b8 00 00 00 00       	mov    $0x0,%eax
ffffffffffe040a8:	e8 14 ed ff ff       	callq  ffffffffffe02dc1 <printf>
ffffffffffe040ad:	48 8b 45 e0          	mov    -0x20(%rbp),%rax
ffffffffffe040b1:	48 8b 40 18          	mov    0x18(%rax),%rax
ffffffffffe040b5:	48 89 c6             	mov    %rax,%rsi
ffffffffffe040b8:	48 8d 05 d4 27 00 00 	lea    0x27d4(%rip),%rax        # ffffffffffe06893 <set_timeslice_len+0x200>
ffffffffffe040bf:	48 89 c7             	mov    %rax,%rdi
ffffffffffe040c2:	b8 00 00 00 00       	mov    $0x0,%eax
ffffffffffe040c7:	e8 f5 ec ff ff       	callq  ffffffffffe02dc1 <printf>
ffffffffffe040cc:	48 8b 45 e0          	mov    -0x20(%rbp),%rax
ffffffffffe040d0:	48 8b 40 20          	mov    0x20(%rax),%rax
ffffffffffe040d4:	48 89 c6             	mov    %rax,%rsi
ffffffffffe040d7:	48 8d 05 c3 27 00 00 	lea    0x27c3(%rip),%rax        # ffffffffffe068a1 <set_timeslice_len+0x20e>
ffffffffffe040de:	48 89 c7             	mov    %rax,%rdi
ffffffffffe040e1:	b8 00 00 00 00       	mov    $0x0,%eax
ffffffffffe040e6:	e8 d6 ec ff ff       	callq  ffffffffffe02dc1 <printf>
ffffffffffe040eb:	48 8b 45 e0          	mov    -0x20(%rbp),%rax
ffffffffffe040ef:	48 8b 40 28          	mov    0x28(%rax),%rax
ffffffffffe040f3:	48 89 c6             	mov    %rax,%rsi
ffffffffffe040f6:	48 8d 05 b2 27 00 00 	lea    0x27b2(%rip),%rax        # ffffffffffe068af <set_timeslice_len+0x21c>
ffffffffffe040fd:	48 89 c7             	mov    %rax,%rdi
ffffffffffe04100:	b8 00 00 00 00       	mov    $0x0,%eax
ffffffffffe04105:	e8 b7 ec ff ff       	callq  ffffffffffe02dc1 <printf>
ffffffffffe0410a:	48 8b 45 e0          	mov    -0x20(%rbp),%rax
ffffffffffe0410e:	48 8b 40 30          	mov    0x30(%rax),%rax
ffffffffffe04112:	48 89 c6             	mov    %rax,%rsi
ffffffffffe04115:	48 8d 05 a1 27 00 00 	lea    0x27a1(%rip),%rax        # ffffffffffe068bd <set_timeslice_len+0x22a>
ffffffffffe0411c:	48 89 c7             	mov    %rax,%rdi
ffffffffffe0411f:	b8 00 00 00 00       	mov    $0x0,%eax
ffffffffffe04124:	e8 98 ec ff ff       	callq  ffffffffffe02dc1 <printf>
ffffffffffe04129:	48 8b 45 e0          	mov    -0x20(%rbp),%rax
ffffffffffe0412d:	48 8b 40 10          	mov    0x10(%rax),%rax
ffffffffffe04131:	48 89 c6             	mov    %rax,%rsi
ffffffffffe04134:	48 8d 05 8f 27 00 00 	lea    0x278f(%rip),%rax        # ffffffffffe068ca <set_timeslice_len+0x237>
ffffffffffe0413b:	48 89 c7             	mov    %rax,%rdi
ffffffffffe0413e:	b8 00 00 00 00       	mov    $0x0,%eax
ffffffffffe04143:	e8 79 ec ff ff       	callq  ffffffffffe02dc1 <printf>
ffffffffffe04148:	48 8b 45 e0          	mov    -0x20(%rbp),%rax
ffffffffffe0414c:	48 8b 40 08          	mov    0x8(%rax),%rax
ffffffffffe04150:	48 89 c6             	mov    %rax,%rsi
ffffffffffe04153:	48 8d 05 7e 27 00 00 	lea    0x277e(%rip),%rax        # ffffffffffe068d8 <set_timeslice_len+0x245>
ffffffffffe0415a:	48 89 c7             	mov    %rax,%rdi
ffffffffffe0415d:	b8 00 00 00 00       	mov    $0x0,%eax
ffffffffffe04162:	e8 5a ec ff ff       	callq  ffffffffffe02dc1 <printf>
ffffffffffe04167:	48 8b 45 e0          	mov    -0x20(%rbp),%rax
ffffffffffe0416b:	48 8b 00             	mov    (%rax),%rax
ffffffffffe0416e:	48 89 c6             	mov    %rax,%rsi
ffffffffffe04171:	48 8d 05 6e 27 00 00 	lea    0x276e(%rip),%rax        # ffffffffffe068e6 <set_timeslice_len+0x253>
ffffffffffe04178:	48 89 c7             	mov    %rax,%rdi
ffffffffffe0417b:	b8 00 00 00 00       	mov    $0x0,%eax
ffffffffffe04180:	e8 3c ec ff ff       	callq  ffffffffffe02dc1 <printf>
ffffffffffe04185:	48 8b 45 e0          	mov    -0x20(%rbp),%rax
ffffffffffe04189:	48 8b 80 98 00 00 00 	mov    0x98(%rax),%rax
ffffffffffe04190:	48 89 c6             	mov    %rax,%rsi
ffffffffffe04193:	48 8d 05 5a 27 00 00 	lea    0x275a(%rip),%rax        # ffffffffffe068f4 <set_timeslice_len+0x261>
ffffffffffe0419a:	48 89 c7             	mov    %rax,%rdi
ffffffffffe0419d:	b8 00 00 00 00       	mov    $0x0,%eax
ffffffffffe041a2:	e8 1a ec ff ff       	callq  ffffffffffe02dc1 <printf>
ffffffffffe041a7:	48 8b 45 e0          	mov    -0x20(%rbp),%rax
ffffffffffe041ab:	48 8b 40 38          	mov    0x38(%rax),%rax
ffffffffffe041af:	48 89 c6             	mov    %rax,%rsi
ffffffffffe041b2:	48 8d 05 48 27 00 00 	lea    0x2748(%rip),%rax        # ffffffffffe06901 <set_timeslice_len+0x26e>
ffffffffffe041b9:	48 89 c7             	mov    %rax,%rdi
ffffffffffe041bc:	b8 00 00 00 00       	mov    $0x0,%eax
ffffffffffe041c1:	e8 fb eb ff ff       	callq  ffffffffffe02dc1 <printf>
ffffffffffe041c6:	48 8b 45 e0          	mov    -0x20(%rbp),%rax
ffffffffffe041ca:	48 8b 40 40          	mov    0x40(%rax),%rax
ffffffffffe041ce:	48 89 c6             	mov    %rax,%rsi
ffffffffffe041d1:	48 8d 05 37 27 00 00 	lea    0x2737(%rip),%rax        # ffffffffffe0690f <set_timeslice_len+0x27c>
ffffffffffe041d8:	48 89 c7             	mov    %rax,%rdi
ffffffffffe041db:	b8 00 00 00 00       	mov    $0x0,%eax
ffffffffffe041e0:	e8 dc eb ff ff       	callq  ffffffffffe02dc1 <printf>
ffffffffffe041e5:	48 8b 45 e0          	mov    -0x20(%rbp),%rax
ffffffffffe041e9:	48 8b 40 48          	mov    0x48(%rax),%rax
ffffffffffe041ed:	48 89 c6             	mov    %rax,%rsi
ffffffffffe041f0:	48 8d 05 26 27 00 00 	lea    0x2726(%rip),%rax        # ffffffffffe0691d <set_timeslice_len+0x28a>
ffffffffffe041f7:	48 89 c7             	mov    %rax,%rdi
ffffffffffe041fa:	b8 00 00 00 00       	mov    $0x0,%eax
ffffffffffe041ff:	e8 bd eb ff ff       	callq  ffffffffffe02dc1 <printf>
ffffffffffe04204:	48 8b 45 e0          	mov    -0x20(%rbp),%rax
ffffffffffe04208:	48 8b 40 50          	mov    0x50(%rax),%rax
ffffffffffe0420c:	48 89 c6             	mov    %rax,%rsi
ffffffffffe0420f:	48 8d 05 15 27 00 00 	lea    0x2715(%rip),%rax        # ffffffffffe0692b <set_timeslice_len+0x298>
ffffffffffe04216:	48 89 c7             	mov    %rax,%rdi
ffffffffffe04219:	b8 00 00 00 00       	mov    $0x0,%eax
ffffffffffe0421e:	e8 9e eb ff ff       	callq  ffffffffffe02dc1 <printf>
ffffffffffe04223:	48 8b 45 e0          	mov    -0x20(%rbp),%rax
ffffffffffe04227:	48 8b 40 58          	mov    0x58(%rax),%rax
ffffffffffe0422b:	48 89 c6             	mov    %rax,%rsi
ffffffffffe0422e:	48 8d 05 03 27 00 00 	lea    0x2703(%rip),%rax        # ffffffffffe06938 <set_timeslice_len+0x2a5>
ffffffffffe04235:	48 89 c7             	mov    %rax,%rdi
ffffffffffe04238:	b8 00 00 00 00       	mov    $0x0,%eax
ffffffffffe0423d:	e8 7f eb ff ff       	callq  ffffffffffe02dc1 <printf>
ffffffffffe04242:	48 8b 45 e0          	mov    -0x20(%rbp),%rax
ffffffffffe04246:	48 8b 40 60          	mov    0x60(%rax),%rax
ffffffffffe0424a:	48 89 c6             	mov    %rax,%rsi
ffffffffffe0424d:	48 8d 05 f2 26 00 00 	lea    0x26f2(%rip),%rax        # ffffffffffe06946 <set_timeslice_len+0x2b3>
ffffffffffe04254:	48 89 c7             	mov    %rax,%rdi
ffffffffffe04257:	b8 00 00 00 00       	mov    $0x0,%eax
ffffffffffe0425c:	e8 60 eb ff ff       	callq  ffffffffffe02dc1 <printf>
ffffffffffe04261:	48 8b 45 e0          	mov    -0x20(%rbp),%rax
ffffffffffe04265:	48 8b 40 68          	mov    0x68(%rax),%rax
ffffffffffe04269:	48 89 c6             	mov    %rax,%rsi
ffffffffffe0426c:	48 8d 05 e1 26 00 00 	lea    0x26e1(%rip),%rax        # ffffffffffe06954 <set_timeslice_len+0x2c1>
ffffffffffe04273:	48 89 c7             	mov    %rax,%rdi
ffffffffffe04276:	b8 00 00 00 00       	mov    $0x0,%eax
ffffffffffe0427b:	e8 41 eb ff ff       	callq  ffffffffffe02dc1 <printf>
ffffffffffe04280:	48 8b 45 e0          	mov    -0x20(%rbp),%rax
ffffffffffe04284:	48 8b 40 70          	mov    0x70(%rax),%rax
ffffffffffe04288:	48 89 c6             	mov    %rax,%rsi
ffffffffffe0428b:	48 8d 05 d0 26 00 00 	lea    0x26d0(%rip),%rax        # ffffffffffe06962 <set_timeslice_len+0x2cf>
ffffffffffe04292:	48 89 c7             	mov    %rax,%rdi
ffffffffffe04295:	b8 00 00 00 00       	mov    $0x0,%eax
ffffffffffe0429a:	e8 22 eb ff ff       	callq  ffffffffffe02dc1 <printf>
ffffffffffe0429f:	48 8b 45 e0          	mov    -0x20(%rbp),%rax
ffffffffffe042a3:	48 8b 80 80 00 00 00 	mov    0x80(%rax),%rax
ffffffffffe042aa:	48 89 c6             	mov    %rax,%rsi
ffffffffffe042ad:	48 8d 05 bb 26 00 00 	lea    0x26bb(%rip),%rax        # ffffffffffe0696f <set_timeslice_len+0x2dc>
ffffffffffe042b4:	48 89 c7             	mov    %rax,%rdi
ffffffffffe042b7:	b8 00 00 00 00       	mov    $0x0,%eax
ffffffffffe042bc:	e8 00 eb ff ff       	callq  ffffffffffe02dc1 <printf>
ffffffffffe042c1:	48 8b 45 e0          	mov    -0x20(%rbp),%rax
ffffffffffe042c5:	48 8b 40 78          	mov    0x78(%rax),%rax
ffffffffffe042c9:	48 89 c6             	mov    %rax,%rsi
ffffffffffe042cc:	48 8d 05 aa 26 00 00 	lea    0x26aa(%rip),%rax        # ffffffffffe0697d <set_timeslice_len+0x2ea>
ffffffffffe042d3:	48 89 c7             	mov    %rax,%rdi
ffffffffffe042d6:	b8 00 00 00 00       	mov    $0x0,%eax
ffffffffffe042db:	e8 e1 ea ff ff       	callq  ffffffffffe02dc1 <printf>
ffffffffffe042e0:	0f 20 d0             	mov    %cr2,%rax
ffffffffffe042e3:	48 89 45 f8          	mov    %rax,-0x8(%rbp)
ffffffffffe042e7:	48 8b 45 f8          	mov    -0x8(%rbp),%rax
ffffffffffe042eb:	48 89 c6             	mov    %rax,%rsi
ffffffffffe042ee:	48 8d 05 96 26 00 00 	lea    0x2696(%rip),%rax        # ffffffffffe0698b <set_timeslice_len+0x2f8>
ffffffffffe042f5:	48 89 c7             	mov    %rax,%rdi
ffffffffffe042f8:	b8 00 00 00 00       	mov    $0x0,%eax
ffffffffffe042fd:	e8 bf ea ff ff       	callq  ffffffffffe02dc1 <printf>
ffffffffffe04302:	48 8b 45 e0          	mov    -0x20(%rbp),%rax
ffffffffffe04306:	48 8b 80 88 00 00 00 	mov    0x88(%rax),%rax
ffffffffffe0430d:	48 89 c6             	mov    %rax,%rsi
ffffffffffe04310:	48 8d 05 81 26 00 00 	lea    0x2681(%rip),%rax        # ffffffffffe06998 <set_timeslice_len+0x305>
ffffffffffe04317:	48 89 c7             	mov    %rax,%rdi
ffffffffffe0431a:	b8 00 00 00 00       	mov    $0x0,%eax
ffffffffffe0431f:	e8 9d ea ff ff       	callq  ffffffffffe02dc1 <printf>
ffffffffffe04324:	48 8b 45 e0          	mov    -0x20(%rbp),%rax
ffffffffffe04328:	48 8b 80 a0 00 00 00 	mov    0xa0(%rax),%rax
ffffffffffe0432f:	48 89 c6             	mov    %rax,%rsi
ffffffffffe04332:	48 8d 05 6d 26 00 00 	lea    0x266d(%rip),%rax        # ffffffffffe069a6 <set_timeslice_len+0x313>
ffffffffffe04339:	48 89 c7             	mov    %rax,%rdi
ffffffffffe0433c:	b8 00 00 00 00       	mov    $0x0,%eax
ffffffffffe04341:	e8 7b ea ff ff       	callq  ffffffffffe02dc1 <printf>
ffffffffffe04346:	48 8b 45 e0          	mov    -0x20(%rbp),%rax
ffffffffffe0434a:	48 8b 00             	mov    (%rax),%rax
ffffffffffe0434d:	48 89 c2             	mov    %rax,%rdx
ffffffffffe04350:	48 8b 45 e0          	mov    -0x20(%rbp),%rax
ffffffffffe04354:	48 8b 80 98 00 00 00 	mov    0x98(%rax),%rax
ffffffffffe0435b:	48 89 d6             	mov    %rdx,%rsi
ffffffffffe0435e:	48 89 c7             	mov    %rax,%rdi
ffffffffffe04361:	e8 8b fa ff ff       	callq  ffffffffffe03df1 <print_stack>
ffffffffffe04366:	90                   	nop
ffffffffffe04367:	c9                   	leaveq 
ffffffffffe04368:	c3                   	retq   

ffffffffffe04369 <get_elf_entrypoint>:
ffffffffffe04369:	55                   	push   %rbp
ffffffffffe0436a:	48 89 e5             	mov    %rsp,%rbp
ffffffffffe0436d:	48 83 ec 08          	sub    $0x8,%rsp
ffffffffffe04371:	48 89 7d f8          	mov    %rdi,-0x8(%rbp)
ffffffffffe04375:	48 8b 45 f8          	mov    -0x8(%rbp),%rax
ffffffffffe04379:	48 8b 40 18          	mov    0x18(%rax),%rax
ffffffffffe0437d:	c9                   	leaveq 
ffffffffffe0437e:	c3                   	retq   

ffffffffffe0437f <get_elf_segment>:
ffffffffffe0437f:	55                   	push   %rbp
ffffffffffe04380:	48 89 e5             	mov    %rsp,%rbp
ffffffffffe04383:	48 83 ec 20          	sub    $0x20,%rsp
ffffffffffe04387:	48 89 7d e8          	mov    %rdi,-0x18(%rbp)
ffffffffffe0438b:	89 75 e4             	mov    %esi,-0x1c(%rbp)
ffffffffffe0438e:	48 8b 45 e8          	mov    -0x18(%rbp),%rax
ffffffffffe04392:	48 83 c0 20          	add    $0x20,%rax
ffffffffffe04396:	48 8b 00             	mov    (%rax),%rax
ffffffffffe04399:	88 45 ff             	mov    %al,-0x1(%rbp)
ffffffffffe0439c:	48 8b 45 e8          	mov    -0x18(%rbp),%rax
ffffffffffe043a0:	0f b7 40 38          	movzwl 0x38(%rax),%eax
ffffffffffe043a4:	66 89 45 fc          	mov    %ax,-0x4(%rbp)
ffffffffffe043a8:	48 8b 45 e8          	mov    -0x18(%rbp),%rax
ffffffffffe043ac:	0f b7 40 36          	movzwl 0x36(%rax),%eax
ffffffffffe043b0:	66 89 45 fa          	mov    %ax,-0x6(%rbp)
ffffffffffe043b4:	0f b7 45 fc          	movzwl -0x4(%rbp),%eax
ffffffffffe043b8:	39 45 e4             	cmp    %eax,-0x1c(%rbp)
ffffffffffe043bb:	7c 07                	jl     ffffffffffe043c4 <get_elf_segment+0x45>
ffffffffffe043bd:	b8 00 00 00 00       	mov    $0x0,%eax
ffffffffffe043c2:	eb 20                	jmp    ffffffffffe043e4 <get_elf_segment+0x65>
ffffffffffe043c4:	0f b6 55 ff          	movzbl -0x1(%rbp),%edx
ffffffffffe043c8:	0f b7 45 fa          	movzwl -0x6(%rbp),%eax
ffffffffffe043cc:	0f af 45 e4          	imul   -0x1c(%rbp),%eax
ffffffffffe043d0:	01 d0                	add    %edx,%eax
ffffffffffe043d2:	48 63 d0             	movslq %eax,%rdx
ffffffffffe043d5:	48 8b 45 e8          	mov    -0x18(%rbp),%rax
ffffffffffe043d9:	48 01 d0             	add    %rdx,%rax
ffffffffffe043dc:	48 89 45 f0          	mov    %rax,-0x10(%rbp)
ffffffffffe043e0:	48 8b 45 f0          	mov    -0x10(%rbp),%rax
ffffffffffe043e4:	c9                   	leaveq 
ffffffffffe043e5:	c3                   	retq   

ffffffffffe043e6 <load_elf>:
ffffffffffe043e6:	55                   	push   %rbp
ffffffffffe043e7:	48 89 e5             	mov    %rsp,%rbp
ffffffffffe043ea:	48 83 ec 70          	sub    $0x70,%rsp
ffffffffffe043ee:	48 89 7d 98          	mov    %rdi,-0x68(%rbp)
ffffffffffe043f2:	48 89 75 90          	mov    %rsi,-0x70(%rbp)
ffffffffffe043f6:	bf 5a 00 00 00       	mov    $0x5a,%edi
ffffffffffe043fb:	e8 e1 0a 00 00       	callq  ffffffffffe04ee1 <get_free_page>
ffffffffffe04400:	48 89 45 b0          	mov    %rax,-0x50(%rbp)
ffffffffffe04404:	48 8b 45 b0          	mov    -0x50(%rbp),%rax
ffffffffffe04408:	48 89 45 e0          	mov    %rax,-0x20(%rbp)
ffffffffffe0440c:	48 c7 45 f8 ff ff ff 	movq   $0xffffffffffffffff,-0x8(%rbp)
ffffffffffe04413:	ff 
ffffffffffe04414:	c7 45 f4 00 00 00 00 	movl   $0x0,-0xc(%rbp)
ffffffffffe0441b:	8b 55 f4             	mov    -0xc(%rbp),%edx
ffffffffffe0441e:	48 8b 45 98          	mov    -0x68(%rbp),%rax
ffffffffffe04422:	89 d6                	mov    %edx,%esi
ffffffffffe04424:	48 89 c7             	mov    %rax,%rdi
ffffffffffe04427:	e8 53 ff ff ff       	callq  ffffffffffe0437f <get_elf_segment>
ffffffffffe0442c:	48 89 45 d8          	mov    %rax,-0x28(%rbp)
ffffffffffe04430:	48 83 7d d8 00       	cmpq   $0x0,-0x28(%rbp)
ffffffffffe04435:	0f 84 cc 00 00 00    	je     ffffffffffe04507 <load_elf+0x121>
ffffffffffe0443b:	48 8b 45 d8          	mov    -0x28(%rbp),%rax
ffffffffffe0443f:	8b 00                	mov    (%rax),%eax
ffffffffffe04441:	83 f8 01             	cmp    $0x1,%eax
ffffffffffe04444:	0f 85 b3 00 00 00    	jne    ffffffffffe044fd <load_elf+0x117>
ffffffffffe0444a:	48 83 7d f8 ff       	cmpq   $0xffffffffffffffff,-0x8(%rbp)
ffffffffffe0444f:	75 0c                	jne    ffffffffffe0445d <load_elf+0x77>
ffffffffffe04451:	48 8b 45 d8          	mov    -0x28(%rbp),%rax
ffffffffffe04455:	48 8b 40 10          	mov    0x10(%rax),%rax
ffffffffffe04459:	48 89 45 f8          	mov    %rax,-0x8(%rbp)
ffffffffffe0445d:	48 8b 45 d8          	mov    -0x28(%rbp),%rax
ffffffffffe04461:	48 8b 40 10          	mov    0x10(%rax),%rax
ffffffffffe04465:	48 89 45 e8          	mov    %rax,-0x18(%rbp)
ffffffffffe04469:	eb 73                	jmp    ffffffffffe044de <load_elf+0xf8>
ffffffffffe0446b:	48 8b 45 e8          	mov    -0x18(%rbp),%rax
ffffffffffe0446f:	48 2b 45 f8          	sub    -0x8(%rbp),%rax
ffffffffffe04473:	48 89 c2             	mov    %rax,%rdx
ffffffffffe04476:	48 8b 45 e0          	mov    -0x20(%rbp),%rax
ffffffffffe0447a:	48 01 d0             	add    %rdx,%rax
ffffffffffe0447d:	48 89 45 d0          	mov    %rax,-0x30(%rbp)
ffffffffffe04481:	48 8b 45 d8          	mov    -0x28(%rbp),%rax
ffffffffffe04485:	48 8b 50 10          	mov    0x10(%rax),%rdx
ffffffffffe04489:	48 8b 45 d8          	mov    -0x28(%rbp),%rax
ffffffffffe0448d:	48 8b 40 20          	mov    0x20(%rax),%rax
ffffffffffe04491:	48 01 d0             	add    %rdx,%rax
ffffffffffe04494:	48 39 45 e8          	cmp    %rax,-0x18(%rbp)
ffffffffffe04498:	73 26                	jae    ffffffffffe044c0 <load_elf+0xda>
ffffffffffe0449a:	48 8b 45 d8          	mov    -0x28(%rbp),%rax
ffffffffffe0449e:	48 8b 50 08          	mov    0x8(%rax),%rdx
ffffffffffe044a2:	48 8b 45 98          	mov    -0x68(%rbp),%rax
ffffffffffe044a6:	48 8d 0c 02          	lea    (%rdx,%rax,1),%rcx
ffffffffffe044aa:	48 8b 45 d0          	mov    -0x30(%rbp),%rax
ffffffffffe044ae:	ba 00 10 00 00       	mov    $0x1000,%edx
ffffffffffe044b3:	48 89 ce             	mov    %rcx,%rsi
ffffffffffe044b6:	48 89 c7             	mov    %rax,%rdi
ffffffffffe044b9:	e8 90 0f 00 00       	callq  ffffffffffe0544e <memcpy>
ffffffffffe044be:	eb 16                	jmp    ffffffffffe044d6 <load_elf+0xf0>
ffffffffffe044c0:	48 8b 45 d0          	mov    -0x30(%rbp),%rax
ffffffffffe044c4:	ba 00 10 00 00       	mov    $0x1000,%edx
ffffffffffe044c9:	be 00 00 00 00       	mov    $0x0,%esi
ffffffffffe044ce:	48 89 c7             	mov    %rax,%rdi
ffffffffffe044d1:	e8 2d 0f 00 00       	callq  ffffffffffe05403 <memset>
ffffffffffe044d6:	48 81 45 e8 00 10 00 	addq   $0x1000,-0x18(%rbp)
ffffffffffe044dd:	00 
ffffffffffe044de:	48 8b 45 d8          	mov    -0x28(%rbp),%rax
ffffffffffe044e2:	48 8b 50 10          	mov    0x10(%rax),%rdx
ffffffffffe044e6:	48 8b 45 d8          	mov    -0x28(%rbp),%rax
ffffffffffe044ea:	48 8b 40 28          	mov    0x28(%rax),%rax
ffffffffffe044ee:	48 01 d0             	add    %rdx,%rax
ffffffffffe044f1:	48 39 45 e8          	cmp    %rax,-0x18(%rbp)
ffffffffffe044f5:	0f 82 70 ff ff ff    	jb     ffffffffffe0446b <load_elf+0x85>
ffffffffffe044fb:	eb 01                	jmp    ffffffffffe044fe <load_elf+0x118>
ffffffffffe044fd:	90                   	nop
ffffffffffe044fe:	83 45 f4 01          	addl   $0x1,-0xc(%rbp)
ffffffffffe04502:	e9 14 ff ff ff       	jmpq   ffffffffffe0441b <load_elf+0x35>
ffffffffffe04507:	90                   	nop
ffffffffffe04508:	48 8b 05 e9 55 00 00 	mov    0x55e9(%rip),%rax        # ffffffffffe09af8 <current_thread>
ffffffffffe0450f:	48 8b 80 90 01 00 00 	mov    0x190(%rax),%rax
ffffffffffe04516:	48 89 45 c8          	mov    %rax,-0x38(%rbp)
ffffffffffe0451a:	48 8b 45 c8          	mov    -0x38(%rbp),%rax
ffffffffffe0451e:	48 89 45 a8          	mov    %rax,-0x58(%rbp)
ffffffffffe04522:	48 8b 45 a8          	mov    -0x58(%rbp),%rax
ffffffffffe04526:	48 05 00 0e 00 00    	add    $0xe00,%rax
ffffffffffe0452c:	48 89 45 c0          	mov    %rax,-0x40(%rbp)
ffffffffffe04530:	48 8b 45 98          	mov    -0x68(%rbp),%rax
ffffffffffe04534:	48 89 c7             	mov    %rax,%rdi
ffffffffffe04537:	e8 2d fe ff ff       	callq  ffffffffffe04369 <get_elf_entrypoint>
ffffffffffe0453c:	48 89 45 b8          	mov    %rax,-0x48(%rbp)
ffffffffffe04540:	48 8b 45 90          	mov    -0x70(%rbp),%rax
ffffffffffe04544:	48 8b 55 c0          	mov    -0x40(%rbp),%rdx
ffffffffffe04548:	48 89 90 98 00 00 00 	mov    %rdx,0x98(%rax)
ffffffffffe0454f:	48 8b 45 b8          	mov    -0x48(%rbp),%rax
ffffffffffe04553:	48 2b 45 f8          	sub    -0x8(%rbp),%rax
ffffffffffe04557:	48 89 c2             	mov    %rax,%rdx
ffffffffffe0455a:	48 8b 45 e0          	mov    -0x20(%rbp),%rax
ffffffffffe0455e:	48 01 c2             	add    %rax,%rdx
ffffffffffe04561:	48 8b 45 90          	mov    -0x70(%rbp),%rax
ffffffffffe04565:	48 89 90 80 00 00 00 	mov    %rdx,0x80(%rax)
ffffffffffe0456c:	48 8b 05 85 55 00 00 	mov    0x5585(%rip),%rax        # ffffffffffe09af8 <current_thread>
ffffffffffe04573:	48 8b 55 e0          	mov    -0x20(%rbp),%rdx
ffffffffffe04577:	48 89 90 88 01 00 00 	mov    %rdx,0x188(%rax)
ffffffffffe0457e:	90                   	nop
ffffffffffe0457f:	c9                   	leaveq 
ffffffffffe04580:	c3                   	retq   

ffffffffffe04581 <_proc_thread>:
ffffffffffe04581:	55                   	push   %rbp
ffffffffffe04582:	48 89 e5             	mov    %rsp,%rbp
ffffffffffe04585:	48 81 ec e0 00 00 00 	sub    $0xe0,%rsp
ffffffffffe0458c:	48 89 bd 28 ff ff ff 	mov    %rdi,-0xd8(%rbp)
ffffffffffe04593:	48 8b 85 28 ff ff ff 	mov    -0xd8(%rbp),%rax
ffffffffffe0459a:	48 89 45 f8          	mov    %rax,-0x8(%rbp)
ffffffffffe0459e:	48 8b 45 f8          	mov    -0x8(%rbp),%rax
ffffffffffe045a2:	48 83 c0 18          	add    $0x18,%rax
ffffffffffe045a6:	48 89 45 f0          	mov    %rax,-0x10(%rbp)
ffffffffffe045aa:	48 8b 45 f0          	mov    -0x10(%rbp),%rax
ffffffffffe045ae:	48 89 c7             	mov    %rax,%rdi
ffffffffffe045b1:	e8 ef 04 00 00       	callq  ffffffffffe04aa5 <get_initrd_file>
ffffffffffe045b6:	48 89 45 e0          	mov    %rax,-0x20(%rbp)
ffffffffffe045ba:	48 89 55 e8          	mov    %rdx,-0x18(%rbp)
ffffffffffe045be:	48 8b 45 e0          	mov    -0x20(%rbp),%rax
ffffffffffe045c2:	48 85 c0             	test   %rax,%rax
ffffffffffe045c5:	75 3d                	jne    ffffffffffe04604 <_proc_thread+0x83>
ffffffffffe045c7:	bf 00 00 ff 00       	mov    $0xff0000,%edi
ffffffffffe045cc:	e8 4c e0 ff ff       	callq  ffffffffffe0261d <fb_setcol>
ffffffffffe045d1:	48 8b 45 f0          	mov    -0x10(%rbp),%rax
ffffffffffe045d5:	48 89 c6             	mov    %rax,%rsi
ffffffffffe045d8:	48 8d 05 d9 23 00 00 	lea    0x23d9(%rip),%rax        # ffffffffffe069b8 <set_timeslice_len+0x325>
ffffffffffe045df:	48 89 c7             	mov    %rax,%rdi
ffffffffffe045e2:	b8 00 00 00 00       	mov    $0x0,%eax
ffffffffffe045e7:	e8 d5 e7 ff ff       	callq  ffffffffffe02dc1 <printf>
ffffffffffe045ec:	48 8d 05 f5 23 00 00 	lea    0x23f5(%rip),%rax        # ffffffffffe069e8 <set_timeslice_len+0x355>
ffffffffffe045f3:	48 89 c7             	mov    %rax,%rdi
ffffffffffe045f6:	b8 00 00 00 00       	mov    $0x0,%eax
ffffffffffe045fb:	e8 c1 e7 ff ff       	callq  ffffffffffe02dc1 <printf>
ffffffffffe04600:	fa                   	cli    
ffffffffffe04601:	f4                   	hlt    
ffffffffffe04602:	eb fc                	jmp    ffffffffffe04600 <_proc_thread+0x7f>
ffffffffffe04604:	48 8d 85 30 ff ff ff 	lea    -0xd0(%rbp),%rax
ffffffffffe0460b:	48 89 c7             	mov    %rax,%rdi
ffffffffffe0460e:	e8 a3 06 00 00       	callq  ffffffffffe04cb6 <init_userspace_frame>
ffffffffffe04613:	48 8b 45 e0          	mov    -0x20(%rbp),%rax
ffffffffffe04617:	48 8d 95 30 ff ff ff 	lea    -0xd0(%rbp),%rdx
ffffffffffe0461e:	48 89 d6             	mov    %rdx,%rsi
ffffffffffe04621:	48 89 c7             	mov    %rax,%rdi
ffffffffffe04624:	e8 bd fd ff ff       	callq  ffffffffffe043e6 <load_elf>
ffffffffffe04629:	48 8b 45 f8          	mov    -0x8(%rbp),%rax
ffffffffffe0462d:	48 05 98 00 00 00    	add    $0x98,%rax
ffffffffffe04633:	48 89 85 38 ff ff ff 	mov    %rax,-0xc8(%rbp)
ffffffffffe0463a:	48 8d 85 30 ff ff ff 	lea    -0xd0(%rbp),%rax
ffffffffffe04641:	48 89 c7             	mov    %rax,%rdi
ffffffffffe04644:	e8 2d 05 00 00       	callq  ffffffffffe04b76 <return_from_interrupt>
ffffffffffe04649:	90                   	nop
ffffffffffe0464a:	c9                   	leaveq 
ffffffffffe0464b:	c3                   	retq   

ffffffffffe0464c <start_new_process>:
ffffffffffe0464c:	55                   	push   %rbp
ffffffffffe0464d:	48 89 e5             	mov    %rsp,%rbp
ffffffffffe04650:	48 83 ec 30          	sub    $0x30,%rsp
ffffffffffe04654:	48 89 7d e8          	mov    %rdi,-0x18(%rbp)
ffffffffffe04658:	48 89 75 e0          	mov    %rsi,-0x20(%rbp)
ffffffffffe0465c:	48 89 55 d8          	mov    %rdx,-0x28(%rbp)
ffffffffffe04660:	bf a8 01 00 00       	mov    $0x1a8,%edi
ffffffffffe04665:	e8 1d 0a 00 00       	callq  ffffffffffe05087 <malloc>
ffffffffffe0466a:	48 89 45 f8          	mov    %rax,-0x8(%rbp)
ffffffffffe0466e:	48 8b 55 f8          	mov    -0x8(%rbp),%rdx
ffffffffffe04672:	48 8b 45 f8          	mov    -0x8(%rbp),%rax
ffffffffffe04676:	48 8d 0d 04 ff ff ff 	lea    -0xfc(%rip),%rcx        # ffffffffffe04581 <_proc_thread>
ffffffffffe0467d:	48 89 ce             	mov    %rcx,%rsi
ffffffffffe04680:	48 89 c7             	mov    %rax,%rdi
ffffffffffe04683:	e8 34 1a 00 00       	callq  ffffffffffe060bc <thread_init>
ffffffffffe04688:	48 8b 45 f8          	mov    -0x8(%rbp),%rax
ffffffffffe0468c:	48 8b 55 d8          	mov    -0x28(%rbp),%rdx
ffffffffffe04690:	48 89 50 10          	mov    %rdx,0x10(%rax)
ffffffffffe04694:	48 8b 45 e8          	mov    -0x18(%rbp),%rax
ffffffffffe04698:	48 89 c7             	mov    %rax,%rdi
ffffffffffe0469b:	e8 33 0d 00 00       	callq  ffffffffffe053d3 <strlen>
ffffffffffe046a0:	48 8d 50 01          	lea    0x1(%rax),%rdx
ffffffffffe046a4:	48 8b 45 f8          	mov    -0x8(%rbp),%rax
ffffffffffe046a8:	48 8d 48 18          	lea    0x18(%rax),%rcx
ffffffffffe046ac:	48 8b 45 e8          	mov    -0x18(%rbp),%rax
ffffffffffe046b0:	48 89 c6             	mov    %rax,%rsi
ffffffffffe046b3:	48 89 cf             	mov    %rcx,%rdi
ffffffffffe046b6:	e8 93 0d 00 00       	callq  ffffffffffe0544e <memcpy>
ffffffffffe046bb:	48 8b 45 e0          	mov    -0x20(%rbp),%rax
ffffffffffe046bf:	48 89 c7             	mov    %rax,%rdi
ffffffffffe046c2:	e8 0c 0d 00 00       	callq  ffffffffffe053d3 <strlen>
ffffffffffe046c7:	48 8d 50 01          	lea    0x1(%rax),%rdx
ffffffffffe046cb:	48 8b 45 f8          	mov    -0x8(%rbp),%rax
ffffffffffe046cf:	48 8d 88 98 00 00 00 	lea    0x98(%rax),%rcx
ffffffffffe046d6:	48 8b 45 e0          	mov    -0x20(%rbp),%rax
ffffffffffe046da:	48 89 c6             	mov    %rax,%rsi
ffffffffffe046dd:	48 89 cf             	mov    %rcx,%rdi
ffffffffffe046e0:	e8 69 0d 00 00       	callq  ffffffffffe0544e <memcpy>
ffffffffffe046e5:	48 8b 45 f8          	mov    -0x8(%rbp),%rax
ffffffffffe046e9:	48 8d 50 18          	lea    0x18(%rax),%rdx
ffffffffffe046ed:	48 8b 45 f8          	mov    -0x8(%rbp),%rax
ffffffffffe046f1:	48 8b 40 08          	mov    0x8(%rax),%rax
ffffffffffe046f5:	48 8b 4d f8          	mov    -0x8(%rbp),%rcx
ffffffffffe046f9:	48 81 c1 50 01 00 00 	add    $0x150,%rcx
ffffffffffe04700:	48 89 c6             	mov    %rax,%rsi
ffffffffffe04703:	48 89 cf             	mov    %rcx,%rdi
ffffffffffe04706:	e8 f7 0a 00 00       	callq  ffffffffffe05202 <task_started>
ffffffffffe0470b:	48 8b 45 f8          	mov    -0x8(%rbp),%rax
ffffffffffe0470f:	be 01 00 00 00       	mov    $0x1,%esi
ffffffffffe04714:	48 89 c7             	mov    %rax,%rdi
ffffffffffe04717:	e8 05 12 00 00       	callq  ffffffffffe05921 <make_runnable>
ffffffffffe0471c:	48 8b 45 f8          	mov    -0x8(%rbp),%rax
ffffffffffe04720:	48 8b 40 08          	mov    0x8(%rax),%rax
ffffffffffe04724:	c9                   	leaveq 
ffffffffffe04725:	c3                   	retq   

ffffffffffe04726 <asm_interrupt_gp>:
ffffffffffe04726:	41 57                	push   %r15
ffffffffffe04728:	41 56                	push   %r14
ffffffffffe0472a:	41 55                	push   %r13
ffffffffffe0472c:	41 54                	push   %r12
ffffffffffe0472e:	41 53                	push   %r11
ffffffffffe04730:	41 52                	push   %r10
ffffffffffe04732:	41 51                	push   %r9
ffffffffffe04734:	41 50                	push   %r8
ffffffffffe04736:	52                   	push   %rdx
ffffffffffe04737:	51                   	push   %rcx
ffffffffffe04738:	53                   	push   %rbx
ffffffffffe04739:	50                   	push   %rax
ffffffffffe0473a:	56                   	push   %rsi
ffffffffffe0473b:	57                   	push   %rdi
ffffffffffe0473c:	55                   	push   %rbp
ffffffffffe0473d:	48 89 e3             	mov    %rsp,%rbx
ffffffffffe04740:	48 89 df             	mov    %rbx,%rdi
ffffffffffe04743:	e8 0a 00 00 00       	callq  ffffffffffe04752 <c_asm_interrupt_gp>
ffffffffffe04748:	48 89 df             	mov    %rbx,%rdi
ffffffffffe0474b:	e8 26 04 00 00       	callq  ffffffffffe04b76 <return_from_interrupt>
ffffffffffe04750:	0f 0b                	ud2    

ffffffffffe04752 <c_asm_interrupt_gp>:
ffffffffffe04752:	55                   	push   %rbp
ffffffffffe04753:	48 89 e5             	mov    %rsp,%rbp
ffffffffffe04756:	48 83 ec 10          	sub    $0x10,%rsp
ffffffffffe0475a:	48 89 7d f8          	mov    %rdi,-0x8(%rbp)
ffffffffffe0475e:	48 8b 45 f8          	mov    -0x8(%rbp),%rax
ffffffffffe04762:	48 89 c6             	mov    %rax,%rsi
ffffffffffe04765:	48 8d 05 bc 22 00 00 	lea    0x22bc(%rip),%rax        # ffffffffffe06a28 <set_timeslice_len+0x395>
ffffffffffe0476c:	48 89 c7             	mov    %rax,%rdi
ffffffffffe0476f:	e8 0e f9 ff ff       	callq  ffffffffffe04082 <print_interrupt_frame>
ffffffffffe04774:	48 8d 05 cd 22 00 00 	lea    0x22cd(%rip),%rax        # ffffffffffe06a48 <set_timeslice_len+0x3b5>
ffffffffffe0477b:	48 89 c7             	mov    %rax,%rdi
ffffffffffe0477e:	b8 00 00 00 00       	mov    $0x0,%eax
ffffffffffe04783:	e8 39 e6 ff ff       	callq  ffffffffffe02dc1 <printf>
ffffffffffe04788:	fa                   	cli    
ffffffffffe04789:	f4                   	hlt    
ffffffffffe0478a:	eb fc                	jmp    ffffffffffe04788 <c_asm_interrupt_gp+0x36>

ffffffffffe0478c <asm_interrupt_pf>:
ffffffffffe0478c:	41 57                	push   %r15
ffffffffffe0478e:	41 56                	push   %r14
ffffffffffe04790:	41 55                	push   %r13
ffffffffffe04792:	41 54                	push   %r12
ffffffffffe04794:	41 53                	push   %r11
ffffffffffe04796:	41 52                	push   %r10
ffffffffffe04798:	41 51                	push   %r9
ffffffffffe0479a:	41 50                	push   %r8
ffffffffffe0479c:	52                   	push   %rdx
ffffffffffe0479d:	51                   	push   %rcx
ffffffffffe0479e:	53                   	push   %rbx
ffffffffffe0479f:	50                   	push   %rax
ffffffffffe047a0:	56                   	push   %rsi
ffffffffffe047a1:	57                   	push   %rdi
ffffffffffe047a2:	55                   	push   %rbp
ffffffffffe047a3:	48 89 e3             	mov    %rsp,%rbx
ffffffffffe047a6:	48 89 df             	mov    %rbx,%rdi
ffffffffffe047a9:	e8 0a 00 00 00       	callq  ffffffffffe047b8 <c_asm_interrupt_pf>
ffffffffffe047ae:	48 89 df             	mov    %rbx,%rdi
ffffffffffe047b1:	e8 c0 03 00 00       	callq  ffffffffffe04b76 <return_from_interrupt>
ffffffffffe047b6:	0f 0b                	ud2    

ffffffffffe047b8 <c_asm_interrupt_pf>:
ffffffffffe047b8:	55                   	push   %rbp
ffffffffffe047b9:	48 89 e5             	mov    %rsp,%rbp
ffffffffffe047bc:	48 83 ec 10          	sub    $0x10,%rsp
ffffffffffe047c0:	48 89 7d f8          	mov    %rdi,-0x8(%rbp)
ffffffffffe047c4:	48 8b 45 f8          	mov    -0x8(%rbp),%rax
ffffffffffe047c8:	48 89 c6             	mov    %rax,%rsi
ffffffffffe047cb:	48 8d 05 b2 22 00 00 	lea    0x22b2(%rip),%rax        # ffffffffffe06a84 <set_timeslice_len+0x3f1>
ffffffffffe047d2:	48 89 c7             	mov    %rax,%rdi
ffffffffffe047d5:	e8 a8 f8 ff ff       	callq  ffffffffffe04082 <print_interrupt_frame>
ffffffffffe047da:	48 8d 05 67 22 00 00 	lea    0x2267(%rip),%rax        # ffffffffffe06a48 <set_timeslice_len+0x3b5>
ffffffffffe047e1:	48 89 c7             	mov    %rax,%rdi
ffffffffffe047e4:	b8 00 00 00 00       	mov    $0x0,%eax
ffffffffffe047e9:	e8 d3 e5 ff ff       	callq  ffffffffffe02dc1 <printf>
ffffffffffe047ee:	fa                   	cli    
ffffffffffe047ef:	f4                   	hlt    
ffffffffffe047f0:	eb fc                	jmp    ffffffffffe047ee <c_asm_interrupt_pf+0x36>

ffffffffffe047f2 <asm_interrupt_io>:
ffffffffffe047f2:	41 57                	push   %r15
ffffffffffe047f4:	41 56                	push   %r14
ffffffffffe047f6:	41 55                	push   %r13
ffffffffffe047f8:	41 54                	push   %r12
ffffffffffe047fa:	41 53                	push   %r11
ffffffffffe047fc:	41 52                	push   %r10
ffffffffffe047fe:	41 51                	push   %r9
ffffffffffe04800:	41 50                	push   %r8
ffffffffffe04802:	52                   	push   %rdx
ffffffffffe04803:	51                   	push   %rcx
ffffffffffe04804:	53                   	push   %rbx
ffffffffffe04805:	50                   	push   %rax
ffffffffffe04806:	56                   	push   %rsi
ffffffffffe04807:	57                   	push   %rdi
ffffffffffe04808:	55                   	push   %rbp
ffffffffffe04809:	48 89 e3             	mov    %rsp,%rbx
ffffffffffe0480c:	48 89 df             	mov    %rbx,%rdi
ffffffffffe0480f:	e8 0a 00 00 00       	callq  ffffffffffe0481e <c_asm_interrupt_io>
ffffffffffe04814:	48 89 df             	mov    %rbx,%rdi
ffffffffffe04817:	e8 5a 03 00 00       	callq  ffffffffffe04b76 <return_from_interrupt>
ffffffffffe0481c:	0f 0b                	ud2    

ffffffffffe0481e <c_asm_interrupt_io>:
ffffffffffe0481e:	55                   	push   %rbp
ffffffffffe0481f:	48 89 e5             	mov    %rsp,%rbp
ffffffffffe04822:	48 83 ec 10          	sub    $0x10,%rsp
ffffffffffe04826:	48 89 7d f8          	mov    %rdi,-0x8(%rbp)
ffffffffffe0482a:	48 8b 45 f8          	mov    -0x8(%rbp),%rax
ffffffffffe0482e:	48 89 c6             	mov    %rax,%rsi
ffffffffffe04831:	48 8d 05 57 22 00 00 	lea    0x2257(%rip),%rax        # ffffffffffe06a8f <set_timeslice_len+0x3fc>
ffffffffffe04838:	48 89 c7             	mov    %rax,%rdi
ffffffffffe0483b:	e8 42 f8 ff ff       	callq  ffffffffffe04082 <print_interrupt_frame>
ffffffffffe04840:	48 8d 05 01 22 00 00 	lea    0x2201(%rip),%rax        # ffffffffffe06a48 <set_timeslice_len+0x3b5>
ffffffffffe04847:	48 89 c7             	mov    %rax,%rdi
ffffffffffe0484a:	b8 00 00 00 00       	mov    $0x0,%eax
ffffffffffe0484f:	e8 6d e5 ff ff       	callq  ffffffffffe02dc1 <printf>
ffffffffffe04854:	fa                   	cli    
ffffffffffe04855:	f4                   	hlt    
ffffffffffe04856:	eb fc                	jmp    ffffffffffe04854 <c_asm_interrupt_io+0x36>

ffffffffffe04858 <asm_interrupt_df>:
ffffffffffe04858:	41 57                	push   %r15
ffffffffffe0485a:	41 56                	push   %r14
ffffffffffe0485c:	41 55                	push   %r13
ffffffffffe0485e:	41 54                	push   %r12
ffffffffffe04860:	41 53                	push   %r11
ffffffffffe04862:	41 52                	push   %r10
ffffffffffe04864:	41 51                	push   %r9
ffffffffffe04866:	41 50                	push   %r8
ffffffffffe04868:	52                   	push   %rdx
ffffffffffe04869:	51                   	push   %rcx
ffffffffffe0486a:	53                   	push   %rbx
ffffffffffe0486b:	50                   	push   %rax
ffffffffffe0486c:	56                   	push   %rsi
ffffffffffe0486d:	57                   	push   %rdi
ffffffffffe0486e:	55                   	push   %rbp
ffffffffffe0486f:	48 89 e3             	mov    %rsp,%rbx
ffffffffffe04872:	48 89 df             	mov    %rbx,%rdi
ffffffffffe04875:	e8 0a 00 00 00       	callq  ffffffffffe04884 <c_asm_interrupt_df>
ffffffffffe0487a:	48 89 df             	mov    %rbx,%rdi
ffffffffffe0487d:	e8 f4 02 00 00       	callq  ffffffffffe04b76 <return_from_interrupt>
ffffffffffe04882:	0f 0b                	ud2    

ffffffffffe04884 <c_asm_interrupt_df>:
ffffffffffe04884:	55                   	push   %rbp
ffffffffffe04885:	48 89 e5             	mov    %rsp,%rbp
ffffffffffe04888:	48 83 ec 10          	sub    $0x10,%rsp
ffffffffffe0488c:	48 89 7d f8          	mov    %rdi,-0x8(%rbp)
ffffffffffe04890:	48 8b 45 f8          	mov    -0x8(%rbp),%rax
ffffffffffe04894:	48 89 c6             	mov    %rax,%rsi
ffffffffffe04897:	48 8d 05 00 22 00 00 	lea    0x2200(%rip),%rax        # ffffffffffe06a9e <set_timeslice_len+0x40b>
ffffffffffe0489e:	48 89 c7             	mov    %rax,%rdi
ffffffffffe048a1:	e8 dc f7 ff ff       	callq  ffffffffffe04082 <print_interrupt_frame>
ffffffffffe048a6:	48 8d 05 9b 21 00 00 	lea    0x219b(%rip),%rax        # ffffffffffe06a48 <set_timeslice_len+0x3b5>
ffffffffffe048ad:	48 89 c7             	mov    %rax,%rdi
ffffffffffe048b0:	b8 00 00 00 00       	mov    $0x0,%eax
ffffffffffe048b5:	e8 07 e5 ff ff       	callq  ffffffffffe02dc1 <printf>
ffffffffffe048ba:	fa                   	cli    
ffffffffffe048bb:	f4                   	hlt    
ffffffffffe048bc:	eb fc                	jmp    ffffffffffe048ba <c_asm_interrupt_df+0x36>

ffffffffffe048be <asm_interrupt_sf>:
ffffffffffe048be:	41 57                	push   %r15
ffffffffffe048c0:	41 56                	push   %r14
ffffffffffe048c2:	41 55                	push   %r13
ffffffffffe048c4:	41 54                	push   %r12
ffffffffffe048c6:	41 53                	push   %r11
ffffffffffe048c8:	41 52                	push   %r10
ffffffffffe048ca:	41 51                	push   %r9
ffffffffffe048cc:	41 50                	push   %r8
ffffffffffe048ce:	52                   	push   %rdx
ffffffffffe048cf:	51                   	push   %rcx
ffffffffffe048d0:	53                   	push   %rbx
ffffffffffe048d1:	50                   	push   %rax
ffffffffffe048d2:	56                   	push   %rsi
ffffffffffe048d3:	57                   	push   %rdi
ffffffffffe048d4:	55                   	push   %rbp
ffffffffffe048d5:	48 89 e3             	mov    %rsp,%rbx
ffffffffffe048d8:	48 89 df             	mov    %rbx,%rdi
ffffffffffe048db:	e8 0a 00 00 00       	callq  ffffffffffe048ea <c_asm_interrupt_sf>
ffffffffffe048e0:	48 89 df             	mov    %rbx,%rdi
ffffffffffe048e3:	e8 8e 02 00 00       	callq  ffffffffffe04b76 <return_from_interrupt>
ffffffffffe048e8:	0f 0b                	ud2    

ffffffffffe048ea <c_asm_interrupt_sf>:
ffffffffffe048ea:	55                   	push   %rbp
ffffffffffe048eb:	48 89 e5             	mov    %rsp,%rbp
ffffffffffe048ee:	48 83 ec 10          	sub    $0x10,%rsp
ffffffffffe048f2:	48 89 7d f8          	mov    %rdi,-0x8(%rbp)
ffffffffffe048f6:	48 8b 45 f8          	mov    -0x8(%rbp),%rax
ffffffffffe048fa:	48 89 c6             	mov    %rax,%rsi
ffffffffffe048fd:	48 8d 05 a7 21 00 00 	lea    0x21a7(%rip),%rax        # ffffffffffe06aab <set_timeslice_len+0x418>
ffffffffffe04904:	48 89 c7             	mov    %rax,%rdi
ffffffffffe04907:	e8 76 f7 ff ff       	callq  ffffffffffe04082 <print_interrupt_frame>
ffffffffffe0490c:	48 8d 05 35 21 00 00 	lea    0x2135(%rip),%rax        # ffffffffffe06a48 <set_timeslice_len+0x3b5>
ffffffffffe04913:	48 89 c7             	mov    %rax,%rdi
ffffffffffe04916:	b8 00 00 00 00       	mov    $0x0,%eax
ffffffffffe0491b:	e8 a1 e4 ff ff       	callq  ffffffffffe02dc1 <printf>
ffffffffffe04920:	fa                   	cli    
ffffffffffe04921:	f4                   	hlt    
ffffffffffe04922:	eb fc                	jmp    ffffffffffe04920 <c_asm_interrupt_sf+0x36>

ffffffffffe04924 <asm_interrupt_cf>:
ffffffffffe04924:	41 57                	push   %r15
ffffffffffe04926:	41 56                	push   %r14
ffffffffffe04928:	41 55                	push   %r13
ffffffffffe0492a:	41 54                	push   %r12
ffffffffffe0492c:	41 53                	push   %r11
ffffffffffe0492e:	41 52                	push   %r10
ffffffffffe04930:	41 51                	push   %r9
ffffffffffe04932:	41 50                	push   %r8
ffffffffffe04934:	52                   	push   %rdx
ffffffffffe04935:	51                   	push   %rcx
ffffffffffe04936:	53                   	push   %rbx
ffffffffffe04937:	50                   	push   %rax
ffffffffffe04938:	56                   	push   %rsi
ffffffffffe04939:	57                   	push   %rdi
ffffffffffe0493a:	55                   	push   %rbp
ffffffffffe0493b:	48 89 e3             	mov    %rsp,%rbx
ffffffffffe0493e:	48 89 df             	mov    %rbx,%rdi
ffffffffffe04941:	e8 0a 00 00 00       	callq  ffffffffffe04950 <c_asm_interrupt_cf>
ffffffffffe04946:	48 89 df             	mov    %rbx,%rdi
ffffffffffe04949:	e8 28 02 00 00       	callq  ffffffffffe04b76 <return_from_interrupt>
ffffffffffe0494e:	0f 0b                	ud2    

ffffffffffe04950 <c_asm_interrupt_cf>:
ffffffffffe04950:	55                   	push   %rbp
ffffffffffe04951:	48 89 e5             	mov    %rsp,%rbp
ffffffffffe04954:	48 83 ec 10          	sub    $0x10,%rsp
ffffffffffe04958:	48 89 7d f8          	mov    %rdi,-0x8(%rbp)
ffffffffffe0495c:	48 8b 45 f8          	mov    -0x8(%rbp),%rax
ffffffffffe04960:	48 89 c6             	mov    %rax,%rsi
ffffffffffe04963:	48 8d 05 4d 21 00 00 	lea    0x214d(%rip),%rax        # ffffffffffe06ab7 <set_timeslice_len+0x424>
ffffffffffe0496a:	48 89 c7             	mov    %rax,%rdi
ffffffffffe0496d:	e8 10 f7 ff ff       	callq  ffffffffffe04082 <print_interrupt_frame>
ffffffffffe04972:	48 8d 05 cf 20 00 00 	lea    0x20cf(%rip),%rax        # ffffffffffe06a48 <set_timeslice_len+0x3b5>
ffffffffffe04979:	48 89 c7             	mov    %rax,%rdi
ffffffffffe0497c:	b8 00 00 00 00       	mov    $0x0,%eax
ffffffffffe04981:	e8 3b e4 ff ff       	callq  ffffffffffe02dc1 <printf>
ffffffffffe04986:	fa                   	cli    
ffffffffffe04987:	f4                   	hlt    
ffffffffffe04988:	eb fc                	jmp    ffffffffffe04986 <c_asm_interrupt_cf+0x36>

ffffffffffe0498a <init_exceptions>:
ffffffffffe0498a:	55                   	push   %rbp
ffffffffffe0498b:	48 89 e5             	mov    %rsp,%rbp
ffffffffffe0498e:	48 8d 05 5d fe ff ff 	lea    -0x1a3(%rip),%rax        # ffffffffffe047f2 <asm_interrupt_io>
ffffffffffe04995:	48 89 c6             	mov    %rax,%rsi
ffffffffffe04998:	bf 06 00 00 00       	mov    $0x6,%edi
ffffffffffe0499d:	e8 26 02 00 00       	callq  ffffffffffe04bc8 <set_irq_handler>
ffffffffffe049a2:	48 8d 05 af fe ff ff 	lea    -0x151(%rip),%rax        # ffffffffffe04858 <asm_interrupt_df>
ffffffffffe049a9:	48 89 c6             	mov    %rax,%rsi
ffffffffffe049ac:	bf 08 00 00 00       	mov    $0x8,%edi
ffffffffffe049b1:	e8 12 02 00 00       	callq  ffffffffffe04bc8 <set_irq_handler>
ffffffffffe049b6:	48 8d 05 01 ff ff ff 	lea    -0xff(%rip),%rax        # ffffffffffe048be <asm_interrupt_sf>
ffffffffffe049bd:	48 89 c6             	mov    %rax,%rsi
ffffffffffe049c0:	bf 0c 00 00 00       	mov    $0xc,%edi
ffffffffffe049c5:	e8 fe 01 00 00       	callq  ffffffffffe04bc8 <set_irq_handler>
ffffffffffe049ca:	48 8d 05 55 fd ff ff 	lea    -0x2ab(%rip),%rax        # ffffffffffe04726 <asm_interrupt_gp>
ffffffffffe049d1:	48 89 c6             	mov    %rax,%rsi
ffffffffffe049d4:	bf 0d 00 00 00       	mov    $0xd,%edi
ffffffffffe049d9:	e8 ea 01 00 00       	callq  ffffffffffe04bc8 <set_irq_handler>
ffffffffffe049de:	48 8d 05 a7 fd ff ff 	lea    -0x259(%rip),%rax        # ffffffffffe0478c <asm_interrupt_pf>
ffffffffffe049e5:	48 89 c6             	mov    %rax,%rsi
ffffffffffe049e8:	bf 0e 00 00 00       	mov    $0xe,%edi
ffffffffffe049ed:	e8 d6 01 00 00       	callq  ffffffffffe04bc8 <set_irq_handler>
ffffffffffe049f2:	48 8d 05 2b ff ff ff 	lea    -0xd5(%rip),%rax        # ffffffffffe04924 <asm_interrupt_cf>
ffffffffffe049f9:	48 89 c6             	mov    %rax,%rsi
ffffffffffe049fc:	bf 15 00 00 00       	mov    $0x15,%edi
ffffffffffe04a01:	e8 c2 01 00 00       	callq  ffffffffffe04bc8 <set_irq_handler>
ffffffffffe04a06:	90                   	nop
ffffffffffe04a07:	5d                   	pop    %rbp
ffffffffffe04a08:	c3                   	retq   

ffffffffffe04a09 <tar_getfile>:
ffffffffffe04a09:	55                   	push   %rbp
ffffffffffe04a0a:	48 89 e5             	mov    %rsp,%rbp
ffffffffffe04a0d:	41 55                	push   %r13
ffffffffffe04a0f:	41 54                	push   %r12
ffffffffffe04a11:	48 83 ec 20          	sub    $0x20,%rsp
ffffffffffe04a15:	48 89 7d d8          	mov    %rdi,-0x28(%rbp)
ffffffffffe04a19:	48 8b 45 d8          	mov    -0x28(%rbp),%rax
ffffffffffe04a1d:	48 8d 48 7c          	lea    0x7c(%rax),%rcx
ffffffffffe04a21:	48 8d 45 e8          	lea    -0x18(%rbp),%rax
ffffffffffe04a25:	ba 08 00 00 00       	mov    $0x8,%edx
ffffffffffe04a2a:	48 89 c6             	mov    %rax,%rsi
ffffffffffe04a2d:	48 89 cf             	mov    %rcx,%rdi
ffffffffffe04a30:	e8 c2 df ff ff       	callq  ffffffffffe029f7 <parse_number>
ffffffffffe04a35:	48 8b 45 d8          	mov    -0x28(%rbp),%rax
ffffffffffe04a39:	48 05 00 02 00 00    	add    $0x200,%rax
ffffffffffe04a3f:	48 89 c2             	mov    %rax,%rdx
ffffffffffe04a42:	48 8b 45 e8          	mov    -0x18(%rbp),%rax
ffffffffffe04a46:	49 89 d4             	mov    %rdx,%r12
ffffffffffe04a49:	49 89 c5             	mov    %rax,%r13
ffffffffffe04a4c:	4c 89 e0             	mov    %r12,%rax
ffffffffffe04a4f:	4c 89 ea             	mov    %r13,%rdx
ffffffffffe04a52:	48 83 c4 20          	add    $0x20,%rsp
ffffffffffe04a56:	41 5c                	pop    %r12
ffffffffffe04a58:	41 5d                	pop    %r13
ffffffffffe04a5a:	5d                   	pop    %rbp
ffffffffffe04a5b:	c3                   	retq   

ffffffffffe04a5c <tar_next_header>:
ffffffffffe04a5c:	55                   	push   %rbp
ffffffffffe04a5d:	48 89 e5             	mov    %rsp,%rbp
ffffffffffe04a60:	48 83 ec 20          	sub    $0x20,%rsp
ffffffffffe04a64:	48 89 7d e8          	mov    %rdi,-0x18(%rbp)
ffffffffffe04a68:	48 8b 45 e8          	mov    -0x18(%rbp),%rax
ffffffffffe04a6c:	48 8d 48 7c          	lea    0x7c(%rax),%rcx
ffffffffffe04a70:	48 8d 45 f0          	lea    -0x10(%rbp),%rax
ffffffffffe04a74:	ba 08 00 00 00       	mov    $0x8,%edx
ffffffffffe04a79:	48 89 c6             	mov    %rax,%rsi
ffffffffffe04a7c:	48 89 cf             	mov    %rcx,%rdi
ffffffffffe04a7f:	e8 73 df ff ff       	callq  ffffffffffe029f7 <parse_number>
ffffffffffe04a84:	48 8b 55 e8          	mov    -0x18(%rbp),%rdx
ffffffffffe04a88:	48 8b 45 f0          	mov    -0x10(%rbp),%rax
ffffffffffe04a8c:	48 01 d0             	add    %rdx,%rax
ffffffffffe04a8f:	48 05 ff 03 00 00    	add    $0x3ff,%rax
ffffffffffe04a95:	48 25 00 fe ff ff    	and    $0xfffffffffffffe00,%rax
ffffffffffe04a9b:	48 89 45 f8          	mov    %rax,-0x8(%rbp)
ffffffffffe04a9f:	48 8b 45 f8          	mov    -0x8(%rbp),%rax
ffffffffffe04aa3:	c9                   	leaveq 
ffffffffffe04aa4:	c3                   	retq   

ffffffffffe04aa5 <get_initrd_file>:
ffffffffffe04aa5:	55                   	push   %rbp
ffffffffffe04aa6:	48 89 e5             	mov    %rsp,%rbp
ffffffffffe04aa9:	53                   	push   %rbx
ffffffffffe04aaa:	48 83 ec 38          	sub    $0x38,%rsp
ffffffffffe04aae:	48 89 7d c8          	mov    %rdi,-0x38(%rbp)
ffffffffffe04ab2:	48 c7 c0 00 00 e0 ff 	mov    $0xffffffffffe00000,%rax
ffffffffffe04ab9:	48 8b 40 18          	mov    0x18(%rax),%rax
ffffffffffe04abd:	48 89 45 d0          	mov    %rax,-0x30(%rbp)
ffffffffffe04ac1:	48 8b 45 d0          	mov    -0x30(%rbp),%rax
ffffffffffe04ac5:	48 89 45 e0          	mov    %rax,-0x20(%rbp)
ffffffffffe04ac9:	48 8b 45 e0          	mov    -0x20(%rbp),%rax
ffffffffffe04acd:	48 89 45 e8          	mov    %rax,-0x18(%rbp)
ffffffffffe04ad1:	48 c7 c0 00 00 e0 ff 	mov    $0xffffffffffe00000,%rax
ffffffffffe04ad8:	48 8b 50 20          	mov    0x20(%rax),%rdx
ffffffffffe04adc:	48 8b 45 e0          	mov    -0x20(%rbp),%rax
ffffffffffe04ae0:	48 01 d0             	add    %rdx,%rax
ffffffffffe04ae3:	48 89 45 d8          	mov    %rax,-0x28(%rbp)
ffffffffffe04ae7:	eb 35                	jmp    ffffffffffe04b1e <get_initrd_file+0x79>
ffffffffffe04ae9:	48 8b 45 e8          	mov    -0x18(%rbp),%rax
ffffffffffe04aed:	48 8b 55 c8          	mov    -0x38(%rbp),%rdx
ffffffffffe04af1:	48 89 d6             	mov    %rdx,%rsi
ffffffffffe04af4:	48 89 c7             	mov    %rax,%rdi
ffffffffffe04af7:	e8 ae 09 00 00       	callq  ffffffffffe054aa <strcmp>
ffffffffffe04afc:	85 c0                	test   %eax,%eax
ffffffffffe04afe:	75 0e                	jne    ffffffffffe04b0e <get_initrd_file+0x69>
ffffffffffe04b00:	48 8b 45 e8          	mov    -0x18(%rbp),%rax
ffffffffffe04b04:	48 89 c7             	mov    %rax,%rdi
ffffffffffe04b07:	e8 fd fe ff ff       	callq  ffffffffffe04a09 <tar_getfile>
ffffffffffe04b0c:	eb 62                	jmp    ffffffffffe04b70 <get_initrd_file+0xcb>
ffffffffffe04b0e:	48 8b 45 e8          	mov    -0x18(%rbp),%rax
ffffffffffe04b12:	48 89 c7             	mov    %rax,%rdi
ffffffffffe04b15:	e8 42 ff ff ff       	callq  ffffffffffe04a5c <tar_next_header>
ffffffffffe04b1a:	48 89 45 e8          	mov    %rax,-0x18(%rbp)
ffffffffffe04b1e:	48 8b 45 e8          	mov    -0x18(%rbp),%rax
ffffffffffe04b22:	0f b6 00             	movzbl (%rax),%eax
ffffffffffe04b25:	84 c0                	test   %al,%al
ffffffffffe04b27:	74 0a                	je     ffffffffffe04b33 <get_initrd_file+0x8e>
ffffffffffe04b29:	48 8b 45 e8          	mov    -0x18(%rbp),%rax
ffffffffffe04b2d:	48 3b 45 d8          	cmp    -0x28(%rbp),%rax
ffffffffffe04b31:	72 b6                	jb     ffffffffffe04ae9 <get_initrd_file+0x44>
ffffffffffe04b33:	bf 00 00 ff 00       	mov    $0xff0000,%edi
ffffffffffe04b38:	e8 e0 da ff ff       	callq  ffffffffffe0261d <fb_setcol>
ffffffffffe04b3d:	48 8b 45 c8          	mov    -0x38(%rbp),%rax
ffffffffffe04b41:	48 89 c6             	mov    %rax,%rsi
ffffffffffe04b44:	48 8d 05 85 1f 00 00 	lea    0x1f85(%rip),%rax        # ffffffffffe06ad0 <set_timeslice_len+0x43d>
ffffffffffe04b4b:	48 89 c7             	mov    %rax,%rdi
ffffffffffe04b4e:	b8 00 00 00 00       	mov    $0x0,%eax
ffffffffffe04b53:	e8 69 e2 ff ff       	callq  ffffffffffe02dc1 <printf>
ffffffffffe04b58:	48 8d 05 b1 1f 00 00 	lea    0x1fb1(%rip),%rax        # ffffffffffe06b10 <set_timeslice_len+0x47d>
ffffffffffe04b5f:	48 89 c7             	mov    %rax,%rdi
ffffffffffe04b62:	b8 00 00 00 00       	mov    $0x0,%eax
ffffffffffe04b67:	e8 55 e2 ff ff       	callq  ffffffffffe02dc1 <printf>
ffffffffffe04b6c:	fa                   	cli    
ffffffffffe04b6d:	f4                   	hlt    
ffffffffffe04b6e:	eb fc                	jmp    ffffffffffe04b6c <get_initrd_file+0xc7>
ffffffffffe04b70:	48 8b 5d f8          	mov    -0x8(%rbp),%rbx
ffffffffffe04b74:	c9                   	leaveq 
ffffffffffe04b75:	c3                   	retq   

ffffffffffe04b76 <return_from_interrupt>:
ffffffffffe04b76:	55                   	push   %rbp
ffffffffffe04b77:	48 89 e5             	mov    %rsp,%rbp
ffffffffffe04b7a:	48 83 ec 10          	sub    $0x10,%rsp
ffffffffffe04b7e:	48 89 7d f8          	mov    %rdi,-0x8(%rbp)
ffffffffffe04b82:	48 8b 45 f8          	mov    -0x8(%rbp),%rax
ffffffffffe04b86:	48 8b 80 90 00 00 00 	mov    0x90(%rax),%rax
ffffffffffe04b8d:	25 00 02 00 00       	and    $0x200,%eax
ffffffffffe04b92:	48 85 c0             	test   %rax,%rax
ffffffffffe04b95:	74 0a                	je     ffffffffffe04ba1 <return_from_interrupt+0x2b>
ffffffffffe04b97:	b8 00 00 00 00       	mov    $0x0,%eax
ffffffffffe04b9c:	e8 6d 12 00 00       	callq  ffffffffffe05e0e <possibly_schedule>
ffffffffffe04ba1:	48 8b 45 f8          	mov    -0x8(%rbp),%rax
ffffffffffe04ba5:	48 89 c4             	mov    %rax,%rsp
ffffffffffe04ba8:	5d                   	pop    %rbp
ffffffffffe04ba9:	5f                   	pop    %rdi
ffffffffffe04baa:	5e                   	pop    %rsi
ffffffffffe04bab:	58                   	pop    %rax
ffffffffffe04bac:	5b                   	pop    %rbx
ffffffffffe04bad:	59                   	pop    %rcx
ffffffffffe04bae:	5a                   	pop    %rdx
ffffffffffe04baf:	41 58                	pop    %r8
ffffffffffe04bb1:	41 59                	pop    %r9
ffffffffffe04bb3:	41 5a                	pop    %r10
ffffffffffe04bb5:	41 5b                	pop    %r11
ffffffffffe04bb7:	41 5c                	pop    %r12
ffffffffffe04bb9:	41 5d                	pop    %r13
ffffffffffe04bbb:	41 5e                	pop    %r14
ffffffffffe04bbd:	41 5f                	pop    %r15
ffffffffffe04bbf:	48 83 c4 08          	add    $0x8,%rsp
ffffffffffe04bc3:	48 cf                	iretq  
ffffffffffe04bc5:	90                   	nop
ffffffffffe04bc6:	c9                   	leaveq 
ffffffffffe04bc7:	c3                   	retq   

ffffffffffe04bc8 <set_irq_handler>:
ffffffffffe04bc8:	55                   	push   %rbp
ffffffffffe04bc9:	48 89 e5             	mov    %rsp,%rbp
ffffffffffe04bcc:	48 83 ec 30          	sub    $0x30,%rsp
ffffffffffe04bd0:	89 7d dc             	mov    %edi,-0x24(%rbp)
ffffffffffe04bd3:	48 89 75 d0          	mov    %rsi,-0x30(%rbp)
ffffffffffe04bd7:	8b 45 dc             	mov    -0x24(%rbp),%eax
ffffffffffe04bda:	48 98                	cltq   
ffffffffffe04bdc:	48 c1 e0 04          	shl    $0x4,%rax
ffffffffffe04be0:	48 89 c2             	mov    %rax,%rdx
ffffffffffe04be3:	48 8d 05 36 3d 00 00 	lea    0x3d36(%rip),%rax        # ffffffffffe08920 <interrupt_table>
ffffffffffe04bea:	48 01 d0             	add    %rdx,%rax
ffffffffffe04bed:	48 89 45 f8          	mov    %rax,-0x8(%rbp)
ffffffffffe04bf1:	48 8b 45 f8          	mov    -0x8(%rbp),%rax
ffffffffffe04bf5:	0f b6 50 05          	movzbl 0x5(%rax),%edx
ffffffffffe04bf9:	83 ca 80             	or     $0xffffff80,%edx
ffffffffffe04bfc:	88 50 05             	mov    %dl,0x5(%rax)
ffffffffffe04bff:	48 8b 45 f8          	mov    -0x8(%rbp),%rax
ffffffffffe04c03:	0f b6 50 05          	movzbl 0x5(%rax),%edx
ffffffffffe04c07:	83 ca 60             	or     $0x60,%edx
ffffffffffe04c0a:	88 50 05             	mov    %dl,0x5(%rax)
ffffffffffe04c0d:	83 7d dc 1f          	cmpl   $0x1f,-0x24(%rbp)
ffffffffffe04c11:	7f 07                	jg     ffffffffffe04c1a <set_irq_handler+0x52>
ffffffffffe04c13:	ba 0f 00 00 00       	mov    $0xf,%edx
ffffffffffe04c18:	eb 05                	jmp    ffffffffffe04c1f <set_irq_handler+0x57>
ffffffffffe04c1a:	ba 0e 00 00 00       	mov    $0xe,%edx
ffffffffffe04c1f:	48 8b 45 f8          	mov    -0x8(%rbp),%rax
ffffffffffe04c23:	89 d1                	mov    %edx,%ecx
ffffffffffe04c25:	83 e1 0f             	and    $0xf,%ecx
ffffffffffe04c28:	0f b6 50 05          	movzbl 0x5(%rax),%edx
ffffffffffe04c2c:	83 e2 f0             	and    $0xfffffff0,%edx
ffffffffffe04c2f:	09 ca                	or     %ecx,%edx
ffffffffffe04c31:	88 50 05             	mov    %dl,0x5(%rax)
ffffffffffe04c34:	48 8b 45 f8          	mov    -0x8(%rbp),%rax
ffffffffffe04c38:	c6 40 04 00          	movb   $0x0,0x4(%rax)
ffffffffffe04c3c:	8c c8                	mov    %cs,%eax
ffffffffffe04c3e:	48 89 45 f0          	mov    %rax,-0x10(%rbp)
ffffffffffe04c42:	48 8b 45 f0          	mov    -0x10(%rbp),%rax
ffffffffffe04c46:	89 c2                	mov    %eax,%edx
ffffffffffe04c48:	48 8b 45 f8          	mov    -0x8(%rbp),%rax
ffffffffffe04c4c:	66 89 50 02          	mov    %dx,0x2(%rax)
ffffffffffe04c50:	48 8b 45 d0          	mov    -0x30(%rbp),%rax
ffffffffffe04c54:	48 89 45 e8          	mov    %rax,-0x18(%rbp)
ffffffffffe04c58:	48 8b 45 e8          	mov    -0x18(%rbp),%rax
ffffffffffe04c5c:	89 c2                	mov    %eax,%edx
ffffffffffe04c5e:	48 8b 45 f8          	mov    -0x8(%rbp),%rax
ffffffffffe04c62:	66 89 10             	mov    %dx,(%rax)
ffffffffffe04c65:	48 8b 45 e8          	mov    -0x18(%rbp),%rax
ffffffffffe04c69:	48 c1 e8 10          	shr    $0x10,%rax
ffffffffffe04c6d:	89 c2                	mov    %eax,%edx
ffffffffffe04c6f:	48 8b 45 f8          	mov    -0x8(%rbp),%rax
ffffffffffe04c73:	66 89 50 06          	mov    %dx,0x6(%rax)
ffffffffffe04c77:	48 8b 45 e8          	mov    -0x18(%rbp),%rax
ffffffffffe04c7b:	48 c1 e8 20          	shr    $0x20,%rax
ffffffffffe04c7f:	89 c2                	mov    %eax,%edx
ffffffffffe04c81:	48 8b 45 f8          	mov    -0x8(%rbp),%rax
ffffffffffe04c85:	89 50 08             	mov    %edx,0x8(%rax)
ffffffffffe04c88:	48 8b 45 f8          	mov    -0x8(%rbp),%rax
ffffffffffe04c8c:	c7 40 0c 00 00 00 00 	movl   $0x0,0xc(%rax)
ffffffffffe04c93:	90                   	nop
ffffffffffe04c94:	c9                   	leaveq 
ffffffffffe04c95:	c3                   	retq   

ffffffffffe04c96 <init_interrupts>:
ffffffffffe04c96:	55                   	push   %rbp
ffffffffffe04c97:	48 89 e5             	mov    %rsp,%rbp
ffffffffffe04c9a:	48 83 ec 10          	sub    $0x10,%rsp
ffffffffffe04c9e:	48 8d 05 7b 3c 00 00 	lea    0x3c7b(%rip),%rax        # ffffffffffe08920 <interrupt_table>
ffffffffffe04ca5:	48 89 45 f8          	mov    %rax,-0x8(%rbp)
ffffffffffe04ca9:	66 c7 45 f6 ff 0f    	movw   $0xfff,-0xa(%rbp)
ffffffffffe04caf:	0f 01 5d f6          	lidt   -0xa(%rbp)
ffffffffffe04cb3:	90                   	nop
ffffffffffe04cb4:	c9                   	leaveq 
ffffffffffe04cb5:	c3                   	retq   

ffffffffffe04cb6 <init_userspace_frame>:
ffffffffffe04cb6:	55                   	push   %rbp
ffffffffffe04cb7:	48 89 e5             	mov    %rsp,%rbp
ffffffffffe04cba:	48 83 ec 30          	sub    $0x30,%rsp
ffffffffffe04cbe:	48 89 7d d8          	mov    %rdi,-0x28(%rbp)
ffffffffffe04cc2:	48 8b 45 d8          	mov    -0x28(%rbp),%rax
ffffffffffe04cc6:	ba a8 00 00 00       	mov    $0xa8,%edx
ffffffffffe04ccb:	be 00 00 00 00       	mov    $0x0,%esi
ffffffffffe04cd0:	48 89 c7             	mov    %rax,%rdi
ffffffffffe04cd3:	e8 2b 07 00 00       	callq  ffffffffffe05403 <memset>
ffffffffffe04cd8:	8c d0                	mov    %ss,%eax
ffffffffffe04cda:	48 89 45 f8          	mov    %rax,-0x8(%rbp)
ffffffffffe04cde:	48 8b 55 f8          	mov    -0x8(%rbp),%rdx
ffffffffffe04ce2:	48 8b 45 d8          	mov    -0x28(%rbp),%rax
ffffffffffe04ce6:	48 89 90 a0 00 00 00 	mov    %rdx,0xa0(%rax)
ffffffffffe04ced:	8c c8                	mov    %cs,%eax
ffffffffffe04cef:	48 89 45 f0          	mov    %rax,-0x10(%rbp)
ffffffffffe04cf3:	48 8b 55 f0          	mov    -0x10(%rbp),%rdx
ffffffffffe04cf7:	48 8b 45 d8          	mov    -0x28(%rbp),%rax
ffffffffffe04cfb:	48 89 90 88 00 00 00 	mov    %rdx,0x88(%rax)
ffffffffffe04d02:	9c                   	pushfq 
ffffffffffe04d03:	58                   	pop    %rax
ffffffffffe04d04:	48 89 45 e8          	mov    %rax,-0x18(%rbp)
ffffffffffe04d08:	48 8b 45 e8          	mov    -0x18(%rbp),%rax
ffffffffffe04d0c:	80 cc 02             	or     $0x2,%ah
ffffffffffe04d0f:	48 89 c2             	mov    %rax,%rdx
ffffffffffe04d12:	48 8b 45 d8          	mov    -0x28(%rbp),%rax
ffffffffffe04d16:	48 89 90 90 00 00 00 	mov    %rdx,0x90(%rax)
ffffffffffe04d1d:	90                   	nop
ffffffffffe04d1e:	c9                   	leaveq 
ffffffffffe04d1f:	c3                   	retq   

ffffffffffe04d20 <asm_interrupt_syscall>:
ffffffffffe04d20:	68 ad de 00 00       	pushq  $0xdead
ffffffffffe04d25:	41 57                	push   %r15
ffffffffffe04d27:	41 56                	push   %r14
ffffffffffe04d29:	41 55                	push   %r13
ffffffffffe04d2b:	41 54                	push   %r12
ffffffffffe04d2d:	41 53                	push   %r11
ffffffffffe04d2f:	41 52                	push   %r10
ffffffffffe04d31:	41 51                	push   %r9
ffffffffffe04d33:	41 50                	push   %r8
ffffffffffe04d35:	52                   	push   %rdx
ffffffffffe04d36:	51                   	push   %rcx
ffffffffffe04d37:	53                   	push   %rbx
ffffffffffe04d38:	50                   	push   %rax
ffffffffffe04d39:	56                   	push   %rsi
ffffffffffe04d3a:	57                   	push   %rdi
ffffffffffe04d3b:	55                   	push   %rbp
ffffffffffe04d3c:	48 89 e3             	mov    %rsp,%rbx
ffffffffffe04d3f:	48 89 df             	mov    %rbx,%rdi
ffffffffffe04d42:	e8 0a 00 00 00       	callq  ffffffffffe04d51 <c_asm_interrupt_syscall>
ffffffffffe04d47:	48 89 df             	mov    %rbx,%rdi
ffffffffffe04d4a:	e8 27 fe ff ff       	callq  ffffffffffe04b76 <return_from_interrupt>
ffffffffffe04d4f:	0f 0b                	ud2    

ffffffffffe04d51 <c_asm_interrupt_syscall>:
ffffffffffe04d51:	55                   	push   %rbp
ffffffffffe04d52:	48 89 e5             	mov    %rsp,%rbp
ffffffffffe04d55:	48 83 ec 10          	sub    $0x10,%rsp
ffffffffffe04d59:	48 89 7d f8          	mov    %rdi,-0x8(%rbp)
ffffffffffe04d5d:	48 8b 45 f8          	mov    -0x8(%rbp),%rax
ffffffffffe04d61:	48 8b 80 90 00 00 00 	mov    0x90(%rax),%rax
ffffffffffe04d68:	25 00 02 00 00       	and    $0x200,%eax
ffffffffffe04d6d:	48 85 c0             	test   %rax,%rax
ffffffffffe04d70:	74 32                	je     ffffffffffe04da4 <c_asm_interrupt_syscall+0x53>
ffffffffffe04d72:	48 8b 45 f8          	mov    -0x8(%rbp),%rax
ffffffffffe04d76:	48 8b 48 30          	mov    0x30(%rax),%rcx
ffffffffffe04d7a:	48 8b 45 f8          	mov    -0x8(%rbp),%rax
ffffffffffe04d7e:	48 8b 50 28          	mov    0x28(%rax),%rdx
ffffffffffe04d82:	48 8b 45 f8          	mov    -0x8(%rbp),%rax
ffffffffffe04d86:	48 8b 70 20          	mov    0x20(%rax),%rsi
ffffffffffe04d8a:	48 8b 45 f8          	mov    -0x8(%rbp),%rax
ffffffffffe04d8e:	48 8b 40 18          	mov    0x18(%rax),%rax
ffffffffffe04d92:	48 89 c7             	mov    %rax,%rdi
ffffffffffe04d95:	e8 6a 07 00 00       	callq  ffffffffffe05504 <systemcall>
ffffffffffe04d9a:	48 8b 55 f8          	mov    -0x8(%rbp),%rdx
ffffffffffe04d9e:	48 89 42 18          	mov    %rax,0x18(%rdx)
ffffffffffe04da2:	eb 2b                	jmp    ffffffffffe04dcf <c_asm_interrupt_syscall+0x7e>
ffffffffffe04da4:	8b 05 76 4b 00 00    	mov    0x4b76(%rip),%eax        # ffffffffffe09920 <interrupt_counter>
ffffffffffe04daa:	83 c0 01             	add    $0x1,%eax
ffffffffffe04dad:	89 05 6d 4b 00 00    	mov    %eax,0x4b6d(%rip)        # ffffffffffe09920 <interrupt_counter>
ffffffffffe04db3:	8b 05 67 4b 00 00    	mov    0x4b67(%rip),%eax        # ffffffffffe09920 <interrupt_counter>
ffffffffffe04db9:	89 c6                	mov    %eax,%esi
ffffffffffe04dbb:	48 8d 05 8e 1d 00 00 	lea    0x1d8e(%rip),%rax        # ffffffffffe06b50 <set_timeslice_len+0x4bd>
ffffffffffe04dc2:	48 89 c7             	mov    %rax,%rdi
ffffffffffe04dc5:	b8 00 00 00 00       	mov    $0x0,%eax
ffffffffffe04dca:	e8 f2 df ff ff       	callq  ffffffffffe02dc1 <printf>
ffffffffffe04dcf:	90                   	nop
ffffffffffe04dd0:	c9                   	leaveq 
ffffffffffe04dd1:	c3                   	retq   

ffffffffffe04dd2 <shutdown>:
ffffffffffe04dd2:	55                   	push   %rbp
ffffffffffe04dd3:	48 89 e5             	mov    %rsp,%rbp
ffffffffffe04dd6:	48 83 ec 10          	sub    $0x10,%rsp
ffffffffffe04dda:	bf 00 ff 00 00       	mov    $0xff00,%edi
ffffffffffe04ddf:	e8 39 d8 ff ff       	callq  ffffffffffe0261d <fb_setcol>
ffffffffffe04de4:	48 8d 05 75 1d 00 00 	lea    0x1d75(%rip),%rax        # ffffffffffe06b60 <set_timeslice_len+0x4cd>
ffffffffffe04deb:	48 89 c7             	mov    %rax,%rdi
ffffffffffe04dee:	b8 00 00 00 00       	mov    $0x0,%eax
ffffffffffe04df3:	e8 c9 df ff ff       	callq  ffffffffffe02dc1 <printf>
ffffffffffe04df8:	66 c7 45 fe 04 06    	movw   $0x604,-0x2(%rbp)
ffffffffffe04dfe:	66 c7 45 fc 00 20    	movw   $0x2000,-0x4(%rbp)
ffffffffffe04e04:	0f b7 55 fe          	movzwl -0x2(%rbp),%edx
ffffffffffe04e08:	0f b7 45 fc          	movzwl -0x4(%rbp),%eax
ffffffffffe04e0c:	66 ef                	out    %ax,(%dx)
ffffffffffe04e0e:	90                   	nop
ffffffffffe04e0f:	fa                   	cli    
ffffffffffe04e10:	f4                   	hlt    
ffffffffffe04e11:	eb fc                	jmp    ffffffffffe04e0f <shutdown+0x3d>

ffffffffffe04e13 <_start>:
ffffffffffe04e13:	55                   	push   %rbp
ffffffffffe04e14:	48 89 e5             	mov    %rsp,%rbp
ffffffffffe04e17:	48 83 ec 10          	sub    $0x10,%rsp
ffffffffffe04e1b:	b8 00 00 00 00       	mov    $0x0,%eax
ffffffffffe04e20:	e8 44 d2 ff ff       	callq  ffffffffffe02069 <init_apic>
ffffffffffe04e25:	48 89 45 f8          	mov    %rax,-0x8(%rbp)
ffffffffffe04e29:	48 c7 c0 00 00 e0 ff 	mov    $0xffffffffffe00000,%rax
ffffffffffe04e30:	0f b7 40 0c          	movzwl 0xc(%rax),%eax
ffffffffffe04e34:	0f b7 c0             	movzwl %ax,%eax
ffffffffffe04e37:	48 39 45 f8          	cmp    %rax,-0x8(%rbp)
ffffffffffe04e3b:	74 04                	je     ffffffffffe04e41 <_start+0x2e>
ffffffffffe04e3d:	fa                   	cli    
ffffffffffe04e3e:	f4                   	hlt    
ffffffffffe04e3f:	eb fc                	jmp    ffffffffffe04e3d <_start+0x2a>
ffffffffffe04e41:	b8 00 00 00 00       	mov    $0x0,%eax
ffffffffffe04e46:	e8 36 db ff ff       	callq  ffffffffffe02981 <init_console>
ffffffffffe04e4b:	b8 00 00 00 00       	mov    $0x0,%eax
ffffffffffe04e50:	e8 58 01 00 00       	callq  ffffffffffe04fad <init_memory>
ffffffffffe04e55:	b8 00 00 00 00       	mov    $0x0,%eax
ffffffffffe04e5a:	e8 37 fe ff ff       	callq  ffffffffffe04c96 <init_interrupts>
ffffffffffe04e5f:	b8 00 00 00 00       	mov    $0x0,%eax
ffffffffffe04e64:	e8 21 fb ff ff       	callq  ffffffffffe0498a <init_exceptions>
ffffffffffe04e69:	b8 00 00 00 00       	mov    $0x0,%eax
ffffffffffe04e6e:	e8 ea d5 ff ff       	callq  ffffffffffe0245d <init_apic_timer>
ffffffffffe04e73:	48 8d 05 a6 fe ff ff 	lea    -0x15a(%rip),%rax        # ffffffffffe04d20 <asm_interrupt_syscall>
ffffffffffe04e7a:	48 89 c6             	mov    %rax,%rsi
ffffffffffe04e7d:	bf 80 00 00 00       	mov    $0x80,%edi
ffffffffffe04e82:	e8 41 fd ff ff       	callq  ffffffffffe04bc8 <set_irq_handler>
ffffffffffe04e87:	b8 00 00 00 00       	mov    $0x0,%eax
ffffffffffe04e8c:	e8 5f 03 00 00       	callq  ffffffffffe051f0 <init_scheduler>
ffffffffffe04e91:	bf d2 54 ff 00       	mov    $0xff54d2,%edi
ffffffffffe04e96:	e8 82 d7 ff ff       	callq  ffffffffffe0261d <fb_setcol>
ffffffffffe04e9b:	48 8d 05 e6 1c 00 00 	lea    0x1ce6(%rip),%rax        # ffffffffffe06b88 <set_timeslice_len+0x4f5>
ffffffffffe04ea2:	48 89 c7             	mov    %rax,%rdi
ffffffffffe04ea5:	b8 00 00 00 00       	mov    $0x0,%eax
ffffffffffe04eaa:	e8 12 df ff ff       	callq  ffffffffffe02dc1 <printf>
ffffffffffe04eaf:	bf bb bb bb 00       	mov    $0xbbbbbb,%edi
ffffffffffe04eb4:	e8 64 d7 ff ff       	callq  ffffffffffe0261d <fb_setcol>
ffffffffffe04eb9:	ba 00 00 00 00       	mov    $0x0,%edx
ffffffffffe04ebe:	48 8d 05 e7 1c 00 00 	lea    0x1ce7(%rip),%rax        # ffffffffffe06bac <set_timeslice_len+0x519>
ffffffffffe04ec5:	48 89 c6             	mov    %rax,%rsi
ffffffffffe04ec8:	48 8d 05 dd 1c 00 00 	lea    0x1cdd(%rip),%rax        # ffffffffffe06bac <set_timeslice_len+0x519>
ffffffffffe04ecf:	48 89 c7             	mov    %rax,%rdi
ffffffffffe04ed2:	e8 75 f7 ff ff       	callq  ffffffffffe0464c <start_new_process>
ffffffffffe04ed7:	b8 00 00 00 00       	mov    $0x0,%eax
ffffffffffe04edc:	e8 48 0f 00 00       	callq  ffffffffffe05e29 <start_multitasking>

ffffffffffe04ee1 <get_free_page>:
ffffffffffe04ee1:	55                   	push   %rbp
ffffffffffe04ee2:	48 89 e5             	mov    %rsp,%rbp
ffffffffffe04ee5:	48 83 ec 30          	sub    $0x30,%rsp
ffffffffffe04ee9:	89 7d dc             	mov    %edi,-0x24(%rbp)
ffffffffffe04eec:	48 8b 05 ad 29 00 00 	mov    0x29ad(%rip),%rax        # ffffffffffe078a0 <page_stack>
ffffffffffe04ef3:	48 c7 c2 ff ff ff ff 	mov    $0xffffffffffffffff,%rdx
ffffffffffe04efa:	48 39 d0             	cmp    %rdx,%rax
ffffffffffe04efd:	75 36                	jne    ffffffffffe04f35 <get_free_page+0x54>
ffffffffffe04eff:	bf 00 00 ff 00       	mov    $0xff0000,%edi
ffffffffffe04f04:	e8 14 d7 ff ff       	callq  ffffffffffe0261d <fb_setcol>
ffffffffffe04f09:	48 8d 05 b0 1c 00 00 	lea    0x1cb0(%rip),%rax        # ffffffffffe06bc0 <INVALID+0x8>
ffffffffffe04f10:	48 89 c7             	mov    %rax,%rdi
ffffffffffe04f13:	b8 00 00 00 00       	mov    $0x0,%eax
ffffffffffe04f18:	e8 a4 de ff ff       	callq  ffffffffffe02dc1 <printf>
ffffffffffe04f1d:	48 8d 05 bc 1c 00 00 	lea    0x1cbc(%rip),%rax        # ffffffffffe06be0 <INVALID+0x28>
ffffffffffe04f24:	48 89 c7             	mov    %rax,%rdi
ffffffffffe04f27:	b8 00 00 00 00       	mov    $0x0,%eax
ffffffffffe04f2c:	e8 90 de ff ff       	callq  ffffffffffe02dc1 <printf>
ffffffffffe04f31:	fa                   	cli    
ffffffffffe04f32:	f4                   	hlt    
ffffffffffe04f33:	eb fc                	jmp    ffffffffffe04f31 <get_free_page+0x50>
ffffffffffe04f35:	48 8b 05 64 29 00 00 	mov    0x2964(%rip),%rax        # ffffffffffe078a0 <page_stack>
ffffffffffe04f3c:	48 89 45 f8          	mov    %rax,-0x8(%rbp)
ffffffffffe04f40:	48 8b 45 f8          	mov    -0x8(%rbp),%rax
ffffffffffe04f44:	48 89 45 e8          	mov    %rax,-0x18(%rbp)
ffffffffffe04f48:	48 8b 45 e8          	mov    -0x18(%rbp),%rax
ffffffffffe04f4c:	48 8b 00             	mov    (%rax),%rax
ffffffffffe04f4f:	48 89 05 4a 29 00 00 	mov    %rax,0x294a(%rip)        # ffffffffffe078a0 <page_stack>
ffffffffffe04f56:	8b 45 dc             	mov    -0x24(%rbp),%eax
ffffffffffe04f59:	0f b6 c8             	movzbl %al,%ecx
ffffffffffe04f5c:	48 8b 45 f8          	mov    -0x8(%rbp),%rax
ffffffffffe04f60:	48 89 45 f0          	mov    %rax,-0x10(%rbp)
ffffffffffe04f64:	48 8b 45 f0          	mov    -0x10(%rbp),%rax
ffffffffffe04f68:	ba 00 10 00 00       	mov    $0x1000,%edx
ffffffffffe04f6d:	89 ce                	mov    %ecx,%esi
ffffffffffe04f6f:	48 89 c7             	mov    %rax,%rdi
ffffffffffe04f72:	e8 8c 04 00 00       	callq  ffffffffffe05403 <memset>
ffffffffffe04f77:	48 8b 45 f8          	mov    -0x8(%rbp),%rax
ffffffffffe04f7b:	c9                   	leaveq 
ffffffffffe04f7c:	c3                   	retq   

ffffffffffe04f7d <free_page>:
ffffffffffe04f7d:	55                   	push   %rbp
ffffffffffe04f7e:	48 89 e5             	mov    %rsp,%rbp
ffffffffffe04f81:	48 83 ec 18          	sub    $0x18,%rsp
ffffffffffe04f85:	48 89 7d e8          	mov    %rdi,-0x18(%rbp)
ffffffffffe04f89:	48 8b 45 e8          	mov    -0x18(%rbp),%rax
ffffffffffe04f8d:	48 89 45 f8          	mov    %rax,-0x8(%rbp)
ffffffffffe04f91:	48 8b 45 f8          	mov    -0x8(%rbp),%rax
ffffffffffe04f95:	48 8b 15 04 29 00 00 	mov    0x2904(%rip),%rdx        # ffffffffffe078a0 <page_stack>
ffffffffffe04f9c:	48 89 10             	mov    %rdx,(%rax)
ffffffffffe04f9f:	48 8b 45 e8          	mov    -0x18(%rbp),%rax
ffffffffffe04fa3:	48 89 05 f6 28 00 00 	mov    %rax,0x28f6(%rip)        # ffffffffffe078a0 <page_stack>
ffffffffffe04faa:	90                   	nop
ffffffffffe04fab:	c9                   	leaveq 
ffffffffffe04fac:	c3                   	retq   

ffffffffffe04fad <init_memory>:
ffffffffffe04fad:	55                   	push   %rbp
ffffffffffe04fae:	48 89 e5             	mov    %rsp,%rbp
ffffffffffe04fb1:	48 83 ec 30          	sub    $0x30,%rsp
ffffffffffe04fb5:	48 c7 45 f8 80 00 e0 	movq   $0xffffffffffe00080,-0x8(%rbp)
ffffffffffe04fbc:	ff 
ffffffffffe04fbd:	48 c7 c0 00 00 e0 ff 	mov    $0xffffffffffe00000,%rax
ffffffffffe04fc4:	8b 40 04             	mov    0x4(%rax),%eax
ffffffffffe04fc7:	89 c0                	mov    %eax,%eax
ffffffffffe04fc9:	48 2d 00 00 20 00    	sub    $0x200000,%rax
ffffffffffe04fcf:	48 89 45 e0          	mov    %rax,-0x20(%rbp)
ffffffffffe04fd3:	e9 9d 00 00 00       	jmpq   ffffffffffe05075 <init_memory+0xc8>
ffffffffffe04fd8:	48 8b 45 f8          	mov    -0x8(%rbp),%rax
ffffffffffe04fdc:	48 8b 40 08          	mov    0x8(%rax),%rax
ffffffffffe04fe0:	83 e0 0f             	and    $0xf,%eax
ffffffffffe04fe3:	48 83 f8 01          	cmp    $0x1,%rax
ffffffffffe04fe7:	0f 85 83 00 00 00    	jne    ffffffffffe05070 <init_memory+0xc3>
ffffffffffe04fed:	48 8b 45 f8          	mov    -0x8(%rbp),%rax
ffffffffffe04ff1:	48 8b 40 08          	mov    0x8(%rax),%rax
ffffffffffe04ff5:	48 83 e0 f0          	and    $0xfffffffffffffff0,%rax
ffffffffffe04ff9:	be 00 a0 00 00       	mov    $0xa000,%esi
ffffffffffe04ffe:	ba 00 00 00 00       	mov    $0x0,%edx
ffffffffffe05003:	48 f7 f6             	div    %rsi
ffffffffffe05006:	48 89 45 f0          	mov    %rax,-0x10(%rbp)
ffffffffffe0500a:	48 8b 45 f8          	mov    -0x8(%rbp),%rax
ffffffffffe0500e:	48 8b 40 08          	mov    0x8(%rax),%rax
ffffffffffe05012:	48 83 e0 f0          	and    $0xfffffffffffffff0,%rax
ffffffffffe05016:	b9 00 a0 00 00       	mov    $0xa000,%ecx
ffffffffffe0501b:	ba 00 00 00 00       	mov    $0x0,%edx
ffffffffffe05020:	48 f7 f1             	div    %rcx
ffffffffffe05023:	48 89 d0             	mov    %rdx,%rax
ffffffffffe05026:	48 85 c0             	test   %rax,%rax
ffffffffffe05029:	74 05                	je     ffffffffffe05030 <init_memory+0x83>
ffffffffffe0502b:	48 83 6d f0 01       	subq   $0x1,-0x10(%rbp)
ffffffffffe05030:	48 c7 45 e8 00 00 00 	movq   $0x0,-0x18(%rbp)
ffffffffffe05037:	00 
ffffffffffe05038:	eb 2c                	jmp    ffffffffffe05066 <init_memory+0xb9>
ffffffffffe0503a:	48 8b 45 f8          	mov    -0x8(%rbp),%rax
ffffffffffe0503e:	48 8b 10             	mov    (%rax),%rdx
ffffffffffe05041:	48 8b 45 e8          	mov    -0x18(%rbp),%rax
ffffffffffe05045:	b9 00 a0 00 00       	mov    $0xa000,%ecx
ffffffffffe0504a:	48 0f af c1          	imul   %rcx,%rax
ffffffffffe0504e:	48 01 d0             	add    %rdx,%rax
ffffffffffe05051:	48 89 45 d8          	mov    %rax,-0x28(%rbp)
ffffffffffe05055:	48 8b 45 d8          	mov    -0x28(%rbp),%rax
ffffffffffe05059:	48 89 c7             	mov    %rax,%rdi
ffffffffffe0505c:	e8 1c ff ff ff       	callq  ffffffffffe04f7d <free_page>
ffffffffffe05061:	48 83 45 e8 01       	addq   $0x1,-0x18(%rbp)
ffffffffffe05066:	48 8b 45 e8          	mov    -0x18(%rbp),%rax
ffffffffffe0506a:	48 3b 45 f0          	cmp    -0x10(%rbp),%rax
ffffffffffe0506e:	7c ca                	jl     ffffffffffe0503a <init_memory+0x8d>
ffffffffffe05070:	48 83 45 f8 10       	addq   $0x10,-0x8(%rbp)
ffffffffffe05075:	48 8b 45 f8          	mov    -0x8(%rbp),%rax
ffffffffffe05079:	48 3b 45 e0          	cmp    -0x20(%rbp),%rax
ffffffffffe0507d:	0f 82 55 ff ff ff    	jb     ffffffffffe04fd8 <init_memory+0x2b>
ffffffffffe05083:	90                   	nop
ffffffffffe05084:	90                   	nop
ffffffffffe05085:	c9                   	leaveq 
ffffffffffe05086:	c3                   	retq   

ffffffffffe05087 <malloc>:
ffffffffffe05087:	55                   	push   %rbp
ffffffffffe05088:	48 89 e5             	mov    %rsp,%rbp
ffffffffffe0508b:	48 83 ec 30          	sub    $0x30,%rsp
ffffffffffe0508f:	48 89 7d d8          	mov    %rdi,-0x28(%rbp)
ffffffffffe05093:	48 83 7d d8 00       	cmpq   $0x0,-0x28(%rbp)
ffffffffffe05098:	75 07                	jne    ffffffffffe050a1 <malloc+0x1a>
ffffffffffe0509a:	b8 00 00 00 00       	mov    $0x0,%eax
ffffffffffe0509f:	eb 5d                	jmp    ffffffffffe050fe <malloc+0x77>
ffffffffffe050a1:	48 81 7d d8 00 10 00 	cmpq   $0x1000,-0x28(%rbp)
ffffffffffe050a8:	00 
ffffffffffe050a9:	0f 96 c0             	setbe  %al
ffffffffffe050ac:	0f b6 c0             	movzbl %al,%eax
ffffffffffe050af:	89 45 f4             	mov    %eax,-0xc(%rbp)
ffffffffffe050b2:	48 8d 05 6f 1b 00 00 	lea    0x1b6f(%rip),%rax        # ffffffffffe06c28 <block_size+0x8>
ffffffffffe050b9:	48 89 45 e8          	mov    %rax,-0x18(%rbp)
ffffffffffe050bd:	83 7d f4 00          	cmpl   $0x0,-0xc(%rbp)
ffffffffffe050c1:	75 27                	jne    ffffffffffe050ea <malloc+0x63>
ffffffffffe050c3:	48 8b 45 e8          	mov    -0x18(%rbp),%rax
ffffffffffe050c7:	48 89 45 e0          	mov    %rax,-0x20(%rbp)
ffffffffffe050cb:	48 8b 45 e0          	mov    -0x20(%rbp),%rax
ffffffffffe050cf:	48 89 c6             	mov    %rax,%rsi
ffffffffffe050d2:	48 8d 05 7e 1b 00 00 	lea    0x1b7e(%rip),%rax        # ffffffffffe06c57 <block_size+0x37>
ffffffffffe050d9:	48 89 c7             	mov    %rax,%rdi
ffffffffffe050dc:	b8 00 00 00 00       	mov    $0x0,%eax
ffffffffffe050e1:	e8 db dc ff ff       	callq  ffffffffffe02dc1 <printf>
ffffffffffe050e6:	fa                   	cli    
ffffffffffe050e7:	f4                   	hlt    
ffffffffffe050e8:	eb fc                	jmp    ffffffffffe050e6 <malloc+0x5f>
ffffffffffe050ea:	90                   	nop
ffffffffffe050eb:	bf 00 00 00 00       	mov    $0x0,%edi
ffffffffffe050f0:	e8 ec fd ff ff       	callq  ffffffffffe04ee1 <get_free_page>
ffffffffffe050f5:	48 89 45 f8          	mov    %rax,-0x8(%rbp)
ffffffffffe050f9:	48 8b 45 f8          	mov    -0x8(%rbp),%rax
ffffffffffe050fd:	90                   	nop
ffffffffffe050fe:	c9                   	leaveq 
ffffffffffe050ff:	c3                   	retq   

ffffffffffe05100 <calloc>:
ffffffffffe05100:	55                   	push   %rbp
ffffffffffe05101:	48 89 e5             	mov    %rsp,%rbp
ffffffffffe05104:	48 83 ec 10          	sub    $0x10,%rsp
ffffffffffe05108:	48 89 7d f8          	mov    %rdi,-0x8(%rbp)
ffffffffffe0510c:	48 89 75 f0          	mov    %rsi,-0x10(%rbp)
ffffffffffe05110:	48 8b 45 f8          	mov    -0x8(%rbp),%rax
ffffffffffe05114:	48 0f af 45 f0       	imul   -0x10(%rbp),%rax
ffffffffffe05119:	48 89 c7             	mov    %rax,%rdi
ffffffffffe0511c:	e8 66 ff ff ff       	callq  ffffffffffe05087 <malloc>
ffffffffffe05121:	c9                   	leaveq 
ffffffffffe05122:	c3                   	retq   

ffffffffffe05123 <free>:
ffffffffffe05123:	55                   	push   %rbp
ffffffffffe05124:	48 89 e5             	mov    %rsp,%rbp
ffffffffffe05127:	48 83 ec 18          	sub    $0x18,%rsp
ffffffffffe0512b:	48 89 7d e8          	mov    %rdi,-0x18(%rbp)
ffffffffffe0512f:	48 83 7d e8 00       	cmpq   $0x0,-0x18(%rbp)
ffffffffffe05134:	74 14                	je     ffffffffffe0514a <free+0x27>
ffffffffffe05136:	48 8b 45 e8          	mov    -0x18(%rbp),%rax
ffffffffffe0513a:	48 89 45 f8          	mov    %rax,-0x8(%rbp)
ffffffffffe0513e:	48 8b 45 f8          	mov    -0x8(%rbp),%rax
ffffffffffe05142:	48 89 c7             	mov    %rax,%rdi
ffffffffffe05145:	e8 33 fe ff ff       	callq  ffffffffffe04f7d <free_page>
ffffffffffe0514a:	90                   	nop
ffffffffffe0514b:	c9                   	leaveq 
ffffffffffe0514c:	c3                   	retq   

ffffffffffe0514d <print_state>:
ffffffffffe0514d:	55                   	push   %rbp
ffffffffffe0514e:	48 89 e5             	mov    %rsp,%rbp
ffffffffffe05151:	48 83 ec 10          	sub    $0x10,%rsp
ffffffffffe05155:	48 8d 05 06 1b 00 00 	lea    0x1b06(%rip),%rax        # ffffffffffe06c62 <block_size+0x42>
ffffffffffe0515c:	48 89 c7             	mov    %rax,%rdi
ffffffffffe0515f:	b8 00 00 00 00       	mov    $0x0,%eax
ffffffffffe05164:	e8 58 dc ff ff       	callq  ffffffffffe02dc1 <printf>
ffffffffffe05169:	48 8b 05 b8 47 00 00 	mov    0x47b8(%rip),%rax        # ffffffffffe09928 <head>
ffffffffffe05170:	48 89 45 f8          	mov    %rax,-0x8(%rbp)
ffffffffffe05174:	eb 5c                	jmp    ffffffffffe051d2 <print_state+0x85>
ffffffffffe05176:	48 8b 45 f8          	mov    -0x8(%rbp),%rax
ffffffffffe0517a:	48 8b 40 08          	mov    0x8(%rax),%rax
ffffffffffe0517e:	48 89 c6             	mov    %rax,%rsi
ffffffffffe05181:	48 8d 05 ec 1a 00 00 	lea    0x1aec(%rip),%rax        # ffffffffffe06c74 <block_size+0x54>
ffffffffffe05188:	48 89 c7             	mov    %rax,%rdi
ffffffffffe0518b:	b8 00 00 00 00       	mov    $0x0,%eax
ffffffffffe05190:	e8 2c dc ff ff       	callq  ffffffffffe02dc1 <printf>
ffffffffffe05195:	48 8b 45 f8          	mov    -0x8(%rbp),%rax
ffffffffffe05199:	8b 40 10             	mov    0x10(%rax),%eax
ffffffffffe0519c:	89 c6                	mov    %eax,%esi
ffffffffffe0519e:	48 8d 05 de 1a 00 00 	lea    0x1ade(%rip),%rax        # ffffffffffe06c83 <block_size+0x63>
ffffffffffe051a5:	48 89 c7             	mov    %rax,%rdi
ffffffffffe051a8:	b8 00 00 00 00       	mov    $0x0,%eax
ffffffffffe051ad:	e8 0f dc ff ff       	callq  ffffffffffe02dc1 <printf>
ffffffffffe051b2:	48 8d 05 da 1a 00 00 	lea    0x1ada(%rip),%rax        # ffffffffffe06c93 <block_size+0x73>
ffffffffffe051b9:	48 89 c7             	mov    %rax,%rdi
ffffffffffe051bc:	b8 00 00 00 00       	mov    $0x0,%eax
ffffffffffe051c1:	e8 fb db ff ff       	callq  ffffffffffe02dc1 <printf>
ffffffffffe051c6:	48 8b 45 f8          	mov    -0x8(%rbp),%rax
ffffffffffe051ca:	48 8b 40 18          	mov    0x18(%rax),%rax
ffffffffffe051ce:	48 89 45 f8          	mov    %rax,-0x8(%rbp)
ffffffffffe051d2:	48 83 7d f8 00       	cmpq   $0x0,-0x8(%rbp)
ffffffffffe051d7:	75 9d                	jne    ffffffffffe05176 <print_state+0x29>
ffffffffffe051d9:	48 8d 05 b5 1a 00 00 	lea    0x1ab5(%rip),%rax        # ffffffffffe06c95 <block_size+0x75>
ffffffffffe051e0:	48 89 c7             	mov    %rax,%rdi
ffffffffffe051e3:	b8 00 00 00 00       	mov    $0x0,%eax
ffffffffffe051e8:	e8 d4 db ff ff       	callq  ffffffffffe02dc1 <printf>
ffffffffffe051ed:	90                   	nop
ffffffffffe051ee:	c9                   	leaveq 
ffffffffffe051ef:	c3                   	retq   

ffffffffffe051f0 <init_scheduler>:
ffffffffffe051f0:	55                   	push   %rbp
ffffffffffe051f1:	48 89 e5             	mov    %rsp,%rbp
ffffffffffe051f4:	48 c7 05 29 47 00 00 	movq   $0x0,0x4729(%rip)        # ffffffffffe09928 <head>
ffffffffffe051fb:	00 00 00 00 
ffffffffffe051ff:	90                   	nop
ffffffffffe05200:	5d                   	pop    %rbp
ffffffffffe05201:	c3                   	retq   

ffffffffffe05202 <task_started>:
ffffffffffe05202:	55                   	push   %rbp
ffffffffffe05203:	48 89 e5             	mov    %rsp,%rbp
ffffffffffe05206:	48 83 ec 28          	sub    $0x28,%rsp
ffffffffffe0520a:	48 89 7d e8          	mov    %rdi,-0x18(%rbp)
ffffffffffe0520e:	48 89 75 e0          	mov    %rsi,-0x20(%rbp)
ffffffffffe05212:	48 89 55 d8          	mov    %rdx,-0x28(%rbp)
ffffffffffe05216:	48 8b 45 e8          	mov    -0x18(%rbp),%rax
ffffffffffe0521a:	48 8b 55 d8          	mov    -0x28(%rbp),%rdx
ffffffffffe0521e:	48 89 50 08          	mov    %rdx,0x8(%rax)
ffffffffffe05222:	48 8b 45 e8          	mov    -0x18(%rbp),%rax
ffffffffffe05226:	48 c7 40 18 00 00 00 	movq   $0x0,0x18(%rax)
ffffffffffe0522d:	00 
ffffffffffe0522e:	48 8b 45 e8          	mov    -0x18(%rbp),%rax
ffffffffffe05232:	48 89 45 f8          	mov    %rax,-0x8(%rbp)
ffffffffffe05236:	48 8b 45 f8          	mov    -0x8(%rbp),%rax
ffffffffffe0523a:	48 2d 50 01 00 00    	sub    $0x150,%rax
ffffffffffe05240:	48 8b 40 10          	mov    0x10(%rax),%rax
ffffffffffe05244:	89 c2                	mov    %eax,%edx
ffffffffffe05246:	48 8b 45 e8          	mov    -0x18(%rbp),%rax
ffffffffffe0524a:	89 50 10             	mov    %edx,0x10(%rax)
ffffffffffe0524d:	90                   	nop
ffffffffffe0524e:	c9                   	leaveq 
ffffffffffe0524f:	c3                   	retq   

ffffffffffe05250 <task_ended>:
ffffffffffe05250:	55                   	push   %rbp
ffffffffffe05251:	48 89 e5             	mov    %rsp,%rbp
ffffffffffe05254:	48 83 ec 18          	sub    $0x18,%rsp
ffffffffffe05258:	48 89 7d e8          	mov    %rdi,-0x18(%rbp)
ffffffffffe0525c:	48 8b 05 c5 46 00 00 	mov    0x46c5(%rip),%rax        # ffffffffffe09928 <head>
ffffffffffe05263:	48 39 45 e8          	cmp    %rax,-0x18(%rbp)
ffffffffffe05267:	75 14                	jne    ffffffffffe0527d <task_ended+0x2d>
ffffffffffe05269:	48 8b 05 b8 46 00 00 	mov    0x46b8(%rip),%rax        # ffffffffffe09928 <head>
ffffffffffe05270:	48 8b 40 18          	mov    0x18(%rax),%rax
ffffffffffe05274:	48 89 05 ad 46 00 00 	mov    %rax,0x46ad(%rip)        # ffffffffffe09928 <head>
ffffffffffe0527b:	eb 55                	jmp    ffffffffffe052d2 <task_ended+0x82>
ffffffffffe0527d:	48 8b 05 a4 46 00 00 	mov    0x46a4(%rip),%rax        # ffffffffffe09928 <head>
ffffffffffe05284:	48 89 45 f8          	mov    %rax,-0x8(%rbp)
ffffffffffe05288:	eb 0c                	jmp    ffffffffffe05296 <task_ended+0x46>
ffffffffffe0528a:	48 8b 45 f8          	mov    -0x8(%rbp),%rax
ffffffffffe0528e:	48 8b 40 18          	mov    0x18(%rax),%rax
ffffffffffe05292:	48 89 45 f8          	mov    %rax,-0x8(%rbp)
ffffffffffe05296:	48 8b 45 f8          	mov    -0x8(%rbp),%rax
ffffffffffe0529a:	48 8b 40 18          	mov    0x18(%rax),%rax
ffffffffffe0529e:	48 85 c0             	test   %rax,%rax
ffffffffffe052a1:	74 0e                	je     ffffffffffe052b1 <task_ended+0x61>
ffffffffffe052a3:	48 8b 45 f8          	mov    -0x8(%rbp),%rax
ffffffffffe052a7:	48 8b 40 18          	mov    0x18(%rax),%rax
ffffffffffe052ab:	48 39 45 e8          	cmp    %rax,-0x18(%rbp)
ffffffffffe052af:	75 d9                	jne    ffffffffffe0528a <task_ended+0x3a>
ffffffffffe052b1:	48 8b 45 f8          	mov    -0x8(%rbp),%rax
ffffffffffe052b5:	48 8b 40 18          	mov    0x18(%rax),%rax
ffffffffffe052b9:	48 85 c0             	test   %rax,%rax
ffffffffffe052bc:	74 14                	je     ffffffffffe052d2 <task_ended+0x82>
ffffffffffe052be:	48 8b 45 f8          	mov    -0x8(%rbp),%rax
ffffffffffe052c2:	48 8b 40 18          	mov    0x18(%rax),%rax
ffffffffffe052c6:	48 8b 50 18          	mov    0x18(%rax),%rdx
ffffffffffe052ca:	48 8b 45 f8          	mov    -0x8(%rbp),%rax
ffffffffffe052ce:	48 89 50 18          	mov    %rdx,0x18(%rax)
ffffffffffe052d2:	90                   	nop
ffffffffffe052d3:	c9                   	leaveq 
ffffffffffe052d4:	c3                   	retq   

ffffffffffe052d5 <enqueue_task>:
ffffffffffe052d5:	55                   	push   %rbp
ffffffffffe052d6:	48 89 e5             	mov    %rsp,%rbp
ffffffffffe052d9:	48 83 ec 18          	sub    $0x18,%rsp
ffffffffffe052dd:	48 89 7d e8          	mov    %rdi,-0x18(%rbp)
ffffffffffe052e1:	48 8b 05 40 46 00 00 	mov    0x4640(%rip),%rax        # ffffffffffe09928 <head>
ffffffffffe052e8:	48 85 c0             	test   %rax,%rax
ffffffffffe052eb:	74 15                	je     ffffffffffe05302 <enqueue_task+0x2d>
ffffffffffe052ed:	48 8b 45 e8          	mov    -0x18(%rbp),%rax
ffffffffffe052f1:	8b 50 10             	mov    0x10(%rax),%edx
ffffffffffe052f4:	48 8b 05 2d 46 00 00 	mov    0x462d(%rip),%rax        # ffffffffffe09928 <head>
ffffffffffe052fb:	8b 40 10             	mov    0x10(%rax),%eax
ffffffffffe052fe:	39 c2                	cmp    %eax,%edx
ffffffffffe05300:	7d 1c                	jge    ffffffffffe0531e <enqueue_task+0x49>
ffffffffffe05302:	48 8b 15 1f 46 00 00 	mov    0x461f(%rip),%rdx        # ffffffffffe09928 <head>
ffffffffffe05309:	48 8b 45 e8          	mov    -0x18(%rbp),%rax
ffffffffffe0530d:	48 89 50 18          	mov    %rdx,0x18(%rax)
ffffffffffe05311:	48 8b 45 e8          	mov    -0x18(%rbp),%rax
ffffffffffe05315:	48 89 05 0c 46 00 00 	mov    %rax,0x460c(%rip)        # ffffffffffe09928 <head>
ffffffffffe0531c:	eb 58                	jmp    ffffffffffe05376 <enqueue_task+0xa1>
ffffffffffe0531e:	48 8b 05 03 46 00 00 	mov    0x4603(%rip),%rax        # ffffffffffe09928 <head>
ffffffffffe05325:	48 89 45 f8          	mov    %rax,-0x8(%rbp)
ffffffffffe05329:	eb 0c                	jmp    ffffffffffe05337 <enqueue_task+0x62>
ffffffffffe0532b:	48 8b 45 f8          	mov    -0x8(%rbp),%rax
ffffffffffe0532f:	48 8b 40 18          	mov    0x18(%rax),%rax
ffffffffffe05333:	48 89 45 f8          	mov    %rax,-0x8(%rbp)
ffffffffffe05337:	48 8b 45 f8          	mov    -0x8(%rbp),%rax
ffffffffffe0533b:	48 8b 40 18          	mov    0x18(%rax),%rax
ffffffffffe0533f:	48 85 c0             	test   %rax,%rax
ffffffffffe05342:	74 16                	je     ffffffffffe0535a <enqueue_task+0x85>
ffffffffffe05344:	48 8b 45 f8          	mov    -0x8(%rbp),%rax
ffffffffffe05348:	48 8b 40 18          	mov    0x18(%rax),%rax
ffffffffffe0534c:	8b 50 10             	mov    0x10(%rax),%edx
ffffffffffe0534f:	48 8b 45 e8          	mov    -0x18(%rbp),%rax
ffffffffffe05353:	8b 40 10             	mov    0x10(%rax),%eax
ffffffffffe05356:	39 c2                	cmp    %eax,%edx
ffffffffffe05358:	7e d1                	jle    ffffffffffe0532b <enqueue_task+0x56>
ffffffffffe0535a:	48 8b 45 f8          	mov    -0x8(%rbp),%rax
ffffffffffe0535e:	48 8b 50 18          	mov    0x18(%rax),%rdx
ffffffffffe05362:	48 8b 45 e8          	mov    -0x18(%rbp),%rax
ffffffffffe05366:	48 89 50 18          	mov    %rdx,0x18(%rax)
ffffffffffe0536a:	48 8b 45 f8          	mov    -0x8(%rbp),%rax
ffffffffffe0536e:	48 8b 55 e8          	mov    -0x18(%rbp),%rdx
ffffffffffe05372:	48 89 50 18          	mov    %rdx,0x18(%rax)
ffffffffffe05376:	b8 01 00 00 00       	mov    $0x1,%eax
ffffffffffe0537b:	c9                   	leaveq 
ffffffffffe0537c:	c3                   	retq   

ffffffffffe0537d <dequeue_next_task>:
ffffffffffe0537d:	55                   	push   %rbp
ffffffffffe0537e:	48 89 e5             	mov    %rsp,%rbp
ffffffffffe05381:	48 83 ec 10          	sub    $0x10,%rsp
ffffffffffe05385:	48 8b 05 9c 45 00 00 	mov    0x459c(%rip),%rax        # ffffffffffe09928 <head>
ffffffffffe0538c:	48 89 45 f8          	mov    %rax,-0x8(%rbp)
ffffffffffe05390:	48 8b 05 91 45 00 00 	mov    0x4591(%rip),%rax        # ffffffffffe09928 <head>
ffffffffffe05397:	48 85 c0             	test   %rax,%rax
ffffffffffe0539a:	74 1e                	je     ffffffffffe053ba <dequeue_next_task+0x3d>
ffffffffffe0539c:	48 8b 05 85 45 00 00 	mov    0x4585(%rip),%rax        # ffffffffffe09928 <head>
ffffffffffe053a3:	48 8b 40 18          	mov    0x18(%rax),%rax
ffffffffffe053a7:	48 89 05 7a 45 00 00 	mov    %rax,0x457a(%rip)        # ffffffffffe09928 <head>
ffffffffffe053ae:	48 8b 45 f8          	mov    -0x8(%rbp),%rax
ffffffffffe053b2:	48 c7 40 18 00 00 00 	movq   $0x0,0x18(%rax)
ffffffffffe053b9:	00 
ffffffffffe053ba:	48 8b 45 f8          	mov    -0x8(%rbp),%rax
ffffffffffe053be:	c9                   	leaveq 
ffffffffffe053bf:	c3                   	retq   

ffffffffffe053c0 <get_timeslice_length>:
ffffffffffe053c0:	55                   	push   %rbp
ffffffffffe053c1:	48 89 e5             	mov    %rsp,%rbp
ffffffffffe053c4:	48 83 ec 08          	sub    $0x8,%rsp
ffffffffffe053c8:	48 89 7d f8          	mov    %rdi,-0x8(%rbp)
ffffffffffe053cc:	b8 00 00 00 00       	mov    $0x0,%eax
ffffffffffe053d1:	c9                   	leaveq 
ffffffffffe053d2:	c3                   	retq   

ffffffffffe053d3 <strlen>:
ffffffffffe053d3:	55                   	push   %rbp
ffffffffffe053d4:	48 89 e5             	mov    %rsp,%rbp
ffffffffffe053d7:	48 83 ec 18          	sub    $0x18,%rsp
ffffffffffe053db:	48 89 7d e8          	mov    %rdi,-0x18(%rbp)
ffffffffffe053df:	c7 45 fc 00 00 00 00 	movl   $0x0,-0x4(%rbp)
ffffffffffe053e6:	eb 09                	jmp    ffffffffffe053f1 <strlen+0x1e>
ffffffffffe053e8:	83 45 fc 01          	addl   $0x1,-0x4(%rbp)
ffffffffffe053ec:	48 83 45 e8 01       	addq   $0x1,-0x18(%rbp)
ffffffffffe053f1:	48 8b 45 e8          	mov    -0x18(%rbp),%rax
ffffffffffe053f5:	0f b6 00             	movzbl (%rax),%eax
ffffffffffe053f8:	84 c0                	test   %al,%al
ffffffffffe053fa:	75 ec                	jne    ffffffffffe053e8 <strlen+0x15>
ffffffffffe053fc:	8b 45 fc             	mov    -0x4(%rbp),%eax
ffffffffffe053ff:	48 98                	cltq   
ffffffffffe05401:	c9                   	leaveq 
ffffffffffe05402:	c3                   	retq   

ffffffffffe05403 <memset>:
ffffffffffe05403:	55                   	push   %rbp
ffffffffffe05404:	48 89 e5             	mov    %rsp,%rbp
ffffffffffe05407:	48 83 ec 28          	sub    $0x28,%rsp
ffffffffffe0540b:	48 89 7d e8          	mov    %rdi,-0x18(%rbp)
ffffffffffe0540f:	89 f0                	mov    %esi,%eax
ffffffffffe05411:	48 89 55 d8          	mov    %rdx,-0x28(%rbp)
ffffffffffe05415:	88 45 e4             	mov    %al,-0x1c(%rbp)
ffffffffffe05418:	48 8b 45 e8          	mov    -0x18(%rbp),%rax
ffffffffffe0541c:	48 89 45 f0          	mov    %rax,-0x10(%rbp)
ffffffffffe05420:	48 c7 45 f8 00 00 00 	movq   $0x0,-0x8(%rbp)
ffffffffffe05427:	00 
ffffffffffe05428:	eb 16                	jmp    ffffffffffe05440 <memset+0x3d>
ffffffffffe0542a:	48 8b 55 f0          	mov    -0x10(%rbp),%rdx
ffffffffffe0542e:	48 8b 45 f8          	mov    -0x8(%rbp),%rax
ffffffffffe05432:	48 01 c2             	add    %rax,%rdx
ffffffffffe05435:	0f b6 45 e4          	movzbl -0x1c(%rbp),%eax
ffffffffffe05439:	88 02                	mov    %al,(%rdx)
ffffffffffe0543b:	48 83 45 f8 01       	addq   $0x1,-0x8(%rbp)
ffffffffffe05440:	48 8b 45 f8          	mov    -0x8(%rbp),%rax
ffffffffffe05444:	48 3b 45 d8          	cmp    -0x28(%rbp),%rax
ffffffffffe05448:	72 e0                	jb     ffffffffffe0542a <memset+0x27>
ffffffffffe0544a:	90                   	nop
ffffffffffe0544b:	90                   	nop
ffffffffffe0544c:	c9                   	leaveq 
ffffffffffe0544d:	c3                   	retq   

ffffffffffe0544e <memcpy>:
ffffffffffe0544e:	55                   	push   %rbp
ffffffffffe0544f:	48 89 e5             	mov    %rsp,%rbp
ffffffffffe05452:	48 83 ec 38          	sub    $0x38,%rsp
ffffffffffe05456:	48 89 7d d8          	mov    %rdi,-0x28(%rbp)
ffffffffffe0545a:	48 89 75 d0          	mov    %rsi,-0x30(%rbp)
ffffffffffe0545e:	48 89 55 c8          	mov    %rdx,-0x38(%rbp)
ffffffffffe05462:	48 8b 45 d8          	mov    -0x28(%rbp),%rax
ffffffffffe05466:	48 89 45 f0          	mov    %rax,-0x10(%rbp)
ffffffffffe0546a:	48 8b 45 d0          	mov    -0x30(%rbp),%rax
ffffffffffe0546e:	48 89 45 e8          	mov    %rax,-0x18(%rbp)
ffffffffffe05472:	48 c7 45 f8 00 00 00 	movq   $0x0,-0x8(%rbp)
ffffffffffe05479:	00 
ffffffffffe0547a:	eb 20                	jmp    ffffffffffe0549c <memcpy+0x4e>
ffffffffffe0547c:	48 8b 55 e8          	mov    -0x18(%rbp),%rdx
ffffffffffe05480:	48 8b 45 f8          	mov    -0x8(%rbp),%rax
ffffffffffe05484:	48 01 d0             	add    %rdx,%rax
ffffffffffe05487:	48 8b 4d f0          	mov    -0x10(%rbp),%rcx
ffffffffffe0548b:	48 8b 55 f8          	mov    -0x8(%rbp),%rdx
ffffffffffe0548f:	48 01 ca             	add    %rcx,%rdx
ffffffffffe05492:	0f b6 00             	movzbl (%rax),%eax
ffffffffffe05495:	88 02                	mov    %al,(%rdx)
ffffffffffe05497:	48 83 45 f8 01       	addq   $0x1,-0x8(%rbp)
ffffffffffe0549c:	48 8b 45 f8          	mov    -0x8(%rbp),%rax
ffffffffffe054a0:	48 3b 45 c8          	cmp    -0x38(%rbp),%rax
ffffffffffe054a4:	72 d6                	jb     ffffffffffe0547c <memcpy+0x2e>
ffffffffffe054a6:	90                   	nop
ffffffffffe054a7:	90                   	nop
ffffffffffe054a8:	c9                   	leaveq 
ffffffffffe054a9:	c3                   	retq   

ffffffffffe054aa <strcmp>:
ffffffffffe054aa:	55                   	push   %rbp
ffffffffffe054ab:	48 89 e5             	mov    %rsp,%rbp
ffffffffffe054ae:	48 83 ec 20          	sub    $0x20,%rsp
ffffffffffe054b2:	48 89 7d e8          	mov    %rdi,-0x18(%rbp)
ffffffffffe054b6:	48 89 75 e0          	mov    %rsi,-0x20(%rbp)
ffffffffffe054ba:	48 8b 45 e8          	mov    -0x18(%rbp),%rax
ffffffffffe054be:	0f b6 00             	movzbl (%rax),%eax
ffffffffffe054c1:	0f be d0             	movsbl %al,%edx
ffffffffffe054c4:	48 8b 45 e0          	mov    -0x20(%rbp),%rax
ffffffffffe054c8:	0f b6 00             	movzbl (%rax),%eax
ffffffffffe054cb:	0f be c8             	movsbl %al,%ecx
ffffffffffe054ce:	89 d0                	mov    %edx,%eax
ffffffffffe054d0:	29 c8                	sub    %ecx,%eax
ffffffffffe054d2:	89 45 fc             	mov    %eax,-0x4(%rbp)
ffffffffffe054d5:	83 7d fc 00          	cmpl   $0x0,-0x4(%rbp)
ffffffffffe054d9:	75 16                	jne    ffffffffffe054f1 <strcmp+0x47>
ffffffffffe054db:	48 8b 45 e8          	mov    -0x18(%rbp),%rax
ffffffffffe054df:	0f b6 00             	movzbl (%rax),%eax
ffffffffffe054e2:	84 c0                	test   %al,%al
ffffffffffe054e4:	74 0b                	je     ffffffffffe054f1 <strcmp+0x47>
ffffffffffe054e6:	48 8b 45 e0          	mov    -0x20(%rbp),%rax
ffffffffffe054ea:	0f b6 00             	movzbl (%rax),%eax
ffffffffffe054ed:	84 c0                	test   %al,%al
ffffffffffe054ef:	75 05                	jne    ffffffffffe054f6 <strcmp+0x4c>
ffffffffffe054f1:	8b 45 fc             	mov    -0x4(%rbp),%eax
ffffffffffe054f4:	eb 0c                	jmp    ffffffffffe05502 <strcmp+0x58>
ffffffffffe054f6:	48 83 45 e8 01       	addq   $0x1,-0x18(%rbp)
ffffffffffe054fb:	48 83 45 e0 01       	addq   $0x1,-0x20(%rbp)
ffffffffffe05500:	eb b8                	jmp    ffffffffffe054ba <strcmp+0x10>
ffffffffffe05502:	c9                   	leaveq 
ffffffffffe05503:	c3                   	retq   

ffffffffffe05504 <systemcall>:
ffffffffffe05504:	55                   	push   %rbp
ffffffffffe05505:	48 89 e5             	mov    %rsp,%rbp
ffffffffffe05508:	41 55                	push   %r13
ffffffffffe0550a:	41 54                	push   %r12
ffffffffffe0550c:	53                   	push   %rbx
ffffffffffe0550d:	48 83 ec 38          	sub    $0x38,%rsp
ffffffffffe05511:	48 89 7d c8          	mov    %rdi,-0x38(%rbp)
ffffffffffe05515:	48 89 75 c0          	mov    %rsi,-0x40(%rbp)
ffffffffffe05519:	48 89 55 b8          	mov    %rdx,-0x48(%rbp)
ffffffffffe0551d:	48 89 4d b0          	mov    %rcx,-0x50(%rbp)
ffffffffffe05521:	48 83 7d c8 01       	cmpq   $0x1,-0x38(%rbp)
ffffffffffe05526:	0f 85 aa 00 00 00    	jne    ffffffffffe055d6 <systemcall+0xd2>
ffffffffffe0552c:	48 8b 05 c5 45 00 00 	mov    0x45c5(%rip),%rax        # ffffffffffe09af8 <current_thread>
ffffffffffe05533:	48 85 c0             	test   %rax,%rax
ffffffffffe05536:	74 50                	je     ffffffffffe05588 <systemcall+0x84>
ffffffffffe05538:	48 8b 05 b9 45 00 00 	mov    0x45b9(%rip),%rax        # ffffffffffe09af8 <current_thread>
ffffffffffe0553f:	4c 8d a8 98 00 00 00 	lea    0x98(%rax),%r13
ffffffffffe05546:	48 8b 05 ab 45 00 00 	mov    0x45ab(%rip),%rax        # ffffffffffe09af8 <current_thread>
ffffffffffe0554d:	4c 8d 60 18          	lea    0x18(%rax),%r12
ffffffffffe05551:	48 8b 05 a0 45 00 00 	mov    0x45a0(%rip),%rax        # ffffffffffe09af8 <current_thread>
ffffffffffe05558:	48 8b 58 08          	mov    0x8(%rax),%rbx
ffffffffffe0555c:	b8 00 00 00 00       	mov    $0x0,%eax
ffffffffffe05561:	e8 2b cf ff ff       	callq  ffffffffffe02491 <current_time>
ffffffffffe05566:	4d 89 e8             	mov    %r13,%r8
ffffffffffe05569:	4c 89 e1             	mov    %r12,%rcx
ffffffffffe0556c:	48 89 da             	mov    %rbx,%rdx
ffffffffffe0556f:	48 89 c6             	mov    %rax,%rsi
ffffffffffe05572:	48 8d 05 34 17 00 00 	lea    0x1734(%rip),%rax        # ffffffffffe06cad <block_size+0x8d>
ffffffffffe05579:	48 89 c7             	mov    %rax,%rdi
ffffffffffe0557c:	b8 00 00 00 00       	mov    $0x0,%eax
ffffffffffe05581:	e8 3b d8 ff ff       	callq  ffffffffffe02dc1 <printf>
ffffffffffe05586:	eb 01                	jmp    ffffffffffe05589 <systemcall+0x85>
ffffffffffe05588:	90                   	nop
ffffffffffe05589:	48 8d 05 36 17 00 00 	lea    0x1736(%rip),%rax        # ffffffffffe06cc6 <block_size+0xa6>
ffffffffffe05590:	48 89 c7             	mov    %rax,%rdi
ffffffffffe05593:	b8 00 00 00 00       	mov    $0x0,%eax
ffffffffffe05598:	e8 24 d8 ff ff       	callq  ffffffffffe02dc1 <printf>
ffffffffffe0559d:	bf ff ff ff 00       	mov    $0xffffff,%edi
ffffffffffe055a2:	e8 76 d0 ff ff       	callq  ffffffffffe0261d <fb_setcol>
ffffffffffe055a7:	48 8b 45 c0          	mov    -0x40(%rbp),%rax
ffffffffffe055ab:	48 89 c6             	mov    %rax,%rsi
ffffffffffe055ae:	48 8d 05 25 17 00 00 	lea    0x1725(%rip),%rax        # ffffffffffe06cda <block_size+0xba>
ffffffffffe055b5:	48 89 c7             	mov    %rax,%rdi
ffffffffffe055b8:	b8 00 00 00 00       	mov    $0x0,%eax
ffffffffffe055bd:	e8 ff d7 ff ff       	callq  ffffffffffe02dc1 <printf>
ffffffffffe055c2:	bf bb bb bb 00       	mov    $0xbbbbbb,%edi
ffffffffffe055c7:	e8 51 d0 ff ff       	callq  ffffffffffe0261d <fb_setcol>
ffffffffffe055cc:	b8 03 00 00 00       	mov    $0x3,%eax
ffffffffffe055d1:	e9 92 02 00 00       	jmpq   ffffffffffe05868 <systemcall+0x364>
ffffffffffe055d6:	48 83 7d c8 02       	cmpq   $0x2,-0x38(%rbp)
ffffffffffe055db:	0f 85 80 00 00 00    	jne    ffffffffffe05661 <systemcall+0x15d>
ffffffffffe055e1:	48 8b 05 10 45 00 00 	mov    0x4510(%rip),%rax        # ffffffffffe09af8 <current_thread>
ffffffffffe055e8:	48 85 c0             	test   %rax,%rax
ffffffffffe055eb:	74 50                	je     ffffffffffe0563d <systemcall+0x139>
ffffffffffe055ed:	48 8b 05 04 45 00 00 	mov    0x4504(%rip),%rax        # ffffffffffe09af8 <current_thread>
ffffffffffe055f4:	4c 8d a8 98 00 00 00 	lea    0x98(%rax),%r13
ffffffffffe055fb:	48 8b 05 f6 44 00 00 	mov    0x44f6(%rip),%rax        # ffffffffffe09af8 <current_thread>
ffffffffffe05602:	4c 8d 60 18          	lea    0x18(%rax),%r12
ffffffffffe05606:	48 8b 05 eb 44 00 00 	mov    0x44eb(%rip),%rax        # ffffffffffe09af8 <current_thread>
ffffffffffe0560d:	48 8b 58 08          	mov    0x8(%rax),%rbx
ffffffffffe05611:	b8 00 00 00 00       	mov    $0x0,%eax
ffffffffffe05616:	e8 76 ce ff ff       	callq  ffffffffffe02491 <current_time>
ffffffffffe0561b:	4d 89 e8             	mov    %r13,%r8
ffffffffffe0561e:	4c 89 e1             	mov    %r12,%rcx
ffffffffffe05621:	48 89 da             	mov    %rbx,%rdx
ffffffffffe05624:	48 89 c6             	mov    %rax,%rsi
ffffffffffe05627:	48 8d 05 7f 16 00 00 	lea    0x167f(%rip),%rax        # ffffffffffe06cad <block_size+0x8d>
ffffffffffe0562e:	48 89 c7             	mov    %rax,%rdi
ffffffffffe05631:	b8 00 00 00 00       	mov    $0x0,%eax
ffffffffffe05636:	e8 86 d7 ff ff       	callq  ffffffffffe02dc1 <printf>
ffffffffffe0563b:	eb 01                	jmp    ffffffffffe0563e <systemcall+0x13a>
ffffffffffe0563d:	90                   	nop
ffffffffffe0563e:	48 8d 05 98 16 00 00 	lea    0x1698(%rip),%rax        # ffffffffffe06cdd <block_size+0xbd>
ffffffffffe05645:	48 89 c7             	mov    %rax,%rdi
ffffffffffe05648:	b8 00 00 00 00       	mov    $0x0,%eax
ffffffffffe0564d:	e8 6f d7 ff ff       	callq  ffffffffffe02dc1 <printf>
ffffffffffe05652:	b8 00 00 00 00       	mov    $0x0,%eax
ffffffffffe05657:	e8 60 0c 00 00       	callq  ffffffffffe062bc <exit_thread>
ffffffffffe0565c:	e9 00 02 00 00       	jmpq   ffffffffffe05861 <systemcall+0x35d>
ffffffffffe05661:	48 83 7d c8 03       	cmpq   $0x3,-0x38(%rbp)
ffffffffffe05666:	0f 85 ae 00 00 00    	jne    ffffffffffe0571a <systemcall+0x216>
ffffffffffe0566c:	48 83 7d c0 00       	cmpq   $0x0,-0x40(%rbp)
ffffffffffe05671:	75 0f                	jne    ffffffffffe05682 <systemcall+0x17e>
ffffffffffe05673:	48 8b 05 7e 44 00 00 	mov    0x447e(%rip),%rax        # ffffffffffe09af8 <current_thread>
ffffffffffe0567a:	48 83 c0 18          	add    $0x18,%rax
ffffffffffe0567e:	48 89 45 c0          	mov    %rax,-0x40(%rbp)
ffffffffffe05682:	48 8b 05 6f 44 00 00 	mov    0x446f(%rip),%rax        # ffffffffffe09af8 <current_thread>
ffffffffffe05689:	48 85 c0             	test   %rax,%rax
ffffffffffe0568c:	74 50                	je     ffffffffffe056de <systemcall+0x1da>
ffffffffffe0568e:	48 8b 05 63 44 00 00 	mov    0x4463(%rip),%rax        # ffffffffffe09af8 <current_thread>
ffffffffffe05695:	4c 8d a8 98 00 00 00 	lea    0x98(%rax),%r13
ffffffffffe0569c:	48 8b 05 55 44 00 00 	mov    0x4455(%rip),%rax        # ffffffffffe09af8 <current_thread>
ffffffffffe056a3:	4c 8d 60 18          	lea    0x18(%rax),%r12
ffffffffffe056a7:	48 8b 05 4a 44 00 00 	mov    0x444a(%rip),%rax        # ffffffffffe09af8 <current_thread>
ffffffffffe056ae:	48 8b 58 08          	mov    0x8(%rax),%rbx
ffffffffffe056b2:	b8 00 00 00 00       	mov    $0x0,%eax
ffffffffffe056b7:	e8 d5 cd ff ff       	callq  ffffffffffe02491 <current_time>
ffffffffffe056bc:	4d 89 e8             	mov    %r13,%r8
ffffffffffe056bf:	4c 89 e1             	mov    %r12,%rcx
ffffffffffe056c2:	48 89 da             	mov    %rbx,%rdx
ffffffffffe056c5:	48 89 c6             	mov    %rax,%rsi
ffffffffffe056c8:	48 8d 05 de 15 00 00 	lea    0x15de(%rip),%rax        # ffffffffffe06cad <block_size+0x8d>
ffffffffffe056cf:	48 89 c7             	mov    %rax,%rdi
ffffffffffe056d2:	b8 00 00 00 00       	mov    $0x0,%eax
ffffffffffe056d7:	e8 e5 d6 ff ff       	callq  ffffffffffe02dc1 <printf>
ffffffffffe056dc:	eb 01                	jmp    ffffffffffe056df <systemcall+0x1db>
ffffffffffe056de:	90                   	nop
ffffffffffe056df:	48 8b 55 b8          	mov    -0x48(%rbp),%rdx
ffffffffffe056e3:	48 8b 45 c0          	mov    -0x40(%rbp),%rax
ffffffffffe056e7:	48 89 c6             	mov    %rax,%rsi
ffffffffffe056ea:	48 8d 05 fc 15 00 00 	lea    0x15fc(%rip),%rax        # ffffffffffe06ced <block_size+0xcd>
ffffffffffe056f1:	48 89 c7             	mov    %rax,%rdi
ffffffffffe056f4:	b8 00 00 00 00       	mov    $0x0,%eax
ffffffffffe056f9:	e8 c3 d6 ff ff       	callq  ffffffffffe02dc1 <printf>
ffffffffffe056fe:	48 8b 4d b8          	mov    -0x48(%rbp),%rcx
ffffffffffe05702:	48 8b 45 c0          	mov    -0x40(%rbp),%rax
ffffffffffe05706:	48 8b 55 b0          	mov    -0x50(%rbp),%rdx
ffffffffffe0570a:	48 89 ce             	mov    %rcx,%rsi
ffffffffffe0570d:	48 89 c7             	mov    %rax,%rdi
ffffffffffe05710:	e8 37 ef ff ff       	callq  ffffffffffe0464c <start_new_process>
ffffffffffe05715:	e9 4e 01 00 00       	jmpq   ffffffffffe05868 <systemcall+0x364>
ffffffffffe0571a:	48 83 7d c8 04       	cmpq   $0x4,-0x38(%rbp)
ffffffffffe0571f:	0f 85 89 00 00 00    	jne    ffffffffffe057ae <systemcall+0x2aa>
ffffffffffe05725:	48 8b 05 cc 43 00 00 	mov    0x43cc(%rip),%rax        # ffffffffffe09af8 <current_thread>
ffffffffffe0572c:	48 85 c0             	test   %rax,%rax
ffffffffffe0572f:	74 50                	je     ffffffffffe05781 <systemcall+0x27d>
ffffffffffe05731:	48 8b 05 c0 43 00 00 	mov    0x43c0(%rip),%rax        # ffffffffffe09af8 <current_thread>
ffffffffffe05738:	4c 8d a8 98 00 00 00 	lea    0x98(%rax),%r13
ffffffffffe0573f:	48 8b 05 b2 43 00 00 	mov    0x43b2(%rip),%rax        # ffffffffffe09af8 <current_thread>
ffffffffffe05746:	4c 8d 60 18          	lea    0x18(%rax),%r12
ffffffffffe0574a:	48 8b 05 a7 43 00 00 	mov    0x43a7(%rip),%rax        # ffffffffffe09af8 <current_thread>
ffffffffffe05751:	48 8b 58 08          	mov    0x8(%rax),%rbx
ffffffffffe05755:	b8 00 00 00 00       	mov    $0x0,%eax
ffffffffffe0575a:	e8 32 cd ff ff       	callq  ffffffffffe02491 <current_time>
ffffffffffe0575f:	4d 89 e8             	mov    %r13,%r8
ffffffffffe05762:	4c 89 e1             	mov    %r12,%rcx
ffffffffffe05765:	48 89 da             	mov    %rbx,%rdx
ffffffffffe05768:	48 89 c6             	mov    %rax,%rsi
ffffffffffe0576b:	48 8d 05 3b 15 00 00 	lea    0x153b(%rip),%rax        # ffffffffffe06cad <block_size+0x8d>
ffffffffffe05772:	48 89 c7             	mov    %rax,%rdi
ffffffffffe05775:	b8 00 00 00 00       	mov    $0x0,%eax
ffffffffffe0577a:	e8 42 d6 ff ff       	callq  ffffffffffe02dc1 <printf>
ffffffffffe0577f:	eb 01                	jmp    ffffffffffe05782 <systemcall+0x27e>
ffffffffffe05781:	90                   	nop
ffffffffffe05782:	48 8b 45 c0          	mov    -0x40(%rbp),%rax
ffffffffffe05786:	48 89 c6             	mov    %rax,%rsi
ffffffffffe05789:	48 8d 05 78 15 00 00 	lea    0x1578(%rip),%rax        # ffffffffffe06d08 <block_size+0xe8>
ffffffffffe05790:	48 89 c7             	mov    %rax,%rdi
ffffffffffe05793:	b8 00 00 00 00       	mov    $0x0,%eax
ffffffffffe05798:	e8 24 d6 ff ff       	callq  ffffffffffe02dc1 <printf>
ffffffffffe0579d:	48 8b 45 c0          	mov    -0x40(%rbp),%rax
ffffffffffe057a1:	48 89 c7             	mov    %rax,%rdi
ffffffffffe057a4:	e8 a7 0d 00 00       	callq  ffffffffffe06550 <sleep>
ffffffffffe057a9:	e9 b3 00 00 00       	jmpq   ffffffffffe05861 <systemcall+0x35d>
ffffffffffe057ae:	48 83 7d c8 05       	cmpq   $0x5,-0x38(%rbp)
ffffffffffe057b3:	0f 85 a8 00 00 00    	jne    ffffffffffe05861 <systemcall+0x35d>
ffffffffffe057b9:	48 8b 05 38 43 00 00 	mov    0x4338(%rip),%rax        # ffffffffffe09af8 <current_thread>
ffffffffffe057c0:	48 85 c0             	test   %rax,%rax
ffffffffffe057c3:	74 50                	je     ffffffffffe05815 <systemcall+0x311>
ffffffffffe057c5:	48 8b 05 2c 43 00 00 	mov    0x432c(%rip),%rax        # ffffffffffe09af8 <current_thread>
ffffffffffe057cc:	4c 8d a8 98 00 00 00 	lea    0x98(%rax),%r13
ffffffffffe057d3:	48 8b 05 1e 43 00 00 	mov    0x431e(%rip),%rax        # ffffffffffe09af8 <current_thread>
ffffffffffe057da:	4c 8d 60 18          	lea    0x18(%rax),%r12
ffffffffffe057de:	48 8b 05 13 43 00 00 	mov    0x4313(%rip),%rax        # ffffffffffe09af8 <current_thread>
ffffffffffe057e5:	48 8b 58 08          	mov    0x8(%rax),%rbx
ffffffffffe057e9:	b8 00 00 00 00       	mov    $0x0,%eax
ffffffffffe057ee:	e8 9e cc ff ff       	callq  ffffffffffe02491 <current_time>
ffffffffffe057f3:	4d 89 e8             	mov    %r13,%r8
ffffffffffe057f6:	4c 89 e1             	mov    %r12,%rcx
ffffffffffe057f9:	48 89 da             	mov    %rbx,%rdx
ffffffffffe057fc:	48 89 c6             	mov    %rax,%rsi
ffffffffffe057ff:	48 8d 05 a7 14 00 00 	lea    0x14a7(%rip),%rax        # ffffffffffe06cad <block_size+0x8d>
ffffffffffe05806:	48 89 c7             	mov    %rax,%rdi
ffffffffffe05809:	b8 00 00 00 00       	mov    $0x0,%eax
ffffffffffe0580e:	e8 ae d5 ff ff       	callq  ffffffffffe02dc1 <printf>
ffffffffffe05813:	eb 01                	jmp    ffffffffffe05816 <systemcall+0x312>
ffffffffffe05815:	90                   	nop
ffffffffffe05816:	48 8b 45 c0          	mov    -0x40(%rbp),%rax
ffffffffffe0581a:	48 89 c6             	mov    %rax,%rsi
ffffffffffe0581d:	48 8d 05 f8 14 00 00 	lea    0x14f8(%rip),%rax        # ffffffffffe06d1c <block_size+0xfc>
ffffffffffe05824:	48 89 c7             	mov    %rax,%rdi
ffffffffffe05827:	b8 00 00 00 00       	mov    $0x0,%eax
ffffffffffe0582c:	e8 90 d5 ff ff       	callq  ffffffffffe02dc1 <printf>
ffffffffffe05831:	48 8b 45 c0          	mov    -0x40(%rbp),%rax
ffffffffffe05835:	48 89 c7             	mov    %rax,%rdi
ffffffffffe05838:	e8 35 0a 00 00       	callq  ffffffffffe06272 <find_thread>
ffffffffffe0583d:	48 89 45 d8          	mov    %rax,-0x28(%rbp)
ffffffffffe05841:	48 83 7d d8 00       	cmpq   $0x0,-0x28(%rbp)
ffffffffffe05846:	75 07                	jne    ffffffffffe0584f <systemcall+0x34b>
ffffffffffe05848:	b8 00 00 00 00       	mov    $0x0,%eax
ffffffffffe0584d:	eb 19                	jmp    ffffffffffe05868 <systemcall+0x364>
ffffffffffe0584f:	48 8b 45 d8          	mov    -0x28(%rbp),%rax
ffffffffffe05853:	48 05 70 01 00 00    	add    $0x170,%rax
ffffffffffe05859:	48 89 c7             	mov    %rax,%rdi
ffffffffffe0585c:	e8 12 00 00 00       	callq  ffffffffffe05873 <wait_on>
ffffffffffe05861:	48 c7 c0 ff ff ff ff 	mov    $0xffffffffffffffff,%rax
ffffffffffe05868:	48 83 c4 38          	add    $0x38,%rsp
ffffffffffe0586c:	5b                   	pop    %rbx
ffffffffffe0586d:	41 5c                	pop    %r12
ffffffffffe0586f:	41 5d                	pop    %r13
ffffffffffe05871:	5d                   	pop    %rbp
ffffffffffe05872:	c3                   	retq   

ffffffffffe05873 <wait_on>:
ffffffffffe05873:	55                   	push   %rbp
ffffffffffe05874:	48 89 e5             	mov    %rsp,%rbp
ffffffffffe05877:	48 83 ec 10          	sub    $0x10,%rsp
ffffffffffe0587b:	48 89 7d f8          	mov    %rdi,-0x8(%rbp)
ffffffffffe0587f:	48 8b 45 f8          	mov    -0x8(%rbp),%rax
ffffffffffe05883:	8b 00                	mov    (%rax),%eax
ffffffffffe05885:	85 c0                	test   %eax,%eax
ffffffffffe05887:	75 31                	jne    ffffffffffe058ba <wait_on+0x47>
ffffffffffe05889:	48 8b 05 68 42 00 00 	mov    0x4268(%rip),%rax        # ffffffffffe09af8 <current_thread>
ffffffffffe05890:	48 8b 55 f8          	mov    -0x8(%rbp),%rdx
ffffffffffe05894:	48 8b 52 08          	mov    0x8(%rdx),%rdx
ffffffffffe05898:	48 89 90 98 01 00 00 	mov    %rdx,0x198(%rax)
ffffffffffe0589f:	48 8b 15 52 42 00 00 	mov    0x4252(%rip),%rdx        # ffffffffffe09af8 <current_thread>
ffffffffffe058a6:	48 8b 45 f8          	mov    -0x8(%rbp),%rax
ffffffffffe058aa:	48 89 50 08          	mov    %rdx,0x8(%rax)
ffffffffffe058ae:	bf 00 00 00 00       	mov    $0x0,%edi
ffffffffffe058b3:	e8 26 02 00 00       	callq  ffffffffffe05ade <schedule_now>
ffffffffffe058b8:	eb 01                	jmp    ffffffffffe058bb <wait_on+0x48>
ffffffffffe058ba:	90                   	nop
ffffffffffe058bb:	c9                   	leaveq 
ffffffffffe058bc:	c3                   	retq   

ffffffffffe058bd <wake_all>:
ffffffffffe058bd:	55                   	push   %rbp
ffffffffffe058be:	48 89 e5             	mov    %rsp,%rbp
ffffffffffe058c1:	48 83 ec 20          	sub    $0x20,%rsp
ffffffffffe058c5:	48 89 7d e8          	mov    %rdi,-0x18(%rbp)
ffffffffffe058c9:	48 8b 45 e8          	mov    -0x18(%rbp),%rax
ffffffffffe058cd:	8b 00                	mov    (%rax),%eax
ffffffffffe058cf:	85 c0                	test   %eax,%eax
ffffffffffe058d1:	75 4b                	jne    ffffffffffe0591e <wake_all+0x61>
ffffffffffe058d3:	48 8b 45 e8          	mov    -0x18(%rbp),%rax
ffffffffffe058d7:	c7 00 01 00 00 00    	movl   $0x1,(%rax)
ffffffffffe058dd:	48 8b 45 e8          	mov    -0x18(%rbp),%rax
ffffffffffe058e1:	48 8b 40 08          	mov    0x8(%rax),%rax
ffffffffffe058e5:	48 89 45 f8          	mov    %rax,-0x8(%rbp)
ffffffffffe058e9:	eb 20                	jmp    ffffffffffe0590b <wake_all+0x4e>
ffffffffffe058eb:	48 8b 45 f8          	mov    -0x8(%rbp),%rax
ffffffffffe058ef:	be 01 00 00 00       	mov    $0x1,%esi
ffffffffffe058f4:	48 89 c7             	mov    %rax,%rdi
ffffffffffe058f7:	e8 25 00 00 00       	callq  ffffffffffe05921 <make_runnable>
ffffffffffe058fc:	48 8b 45 f8          	mov    -0x8(%rbp),%rax
ffffffffffe05900:	48 8b 80 98 01 00 00 	mov    0x198(%rax),%rax
ffffffffffe05907:	48 89 45 f8          	mov    %rax,-0x8(%rbp)
ffffffffffe0590b:	48 83 7d f8 00       	cmpq   $0x0,-0x8(%rbp)
ffffffffffe05910:	75 d9                	jne    ffffffffffe058eb <wake_all+0x2e>
ffffffffffe05912:	48 8b 45 e8          	mov    -0x18(%rbp),%rax
ffffffffffe05916:	48 c7 40 08 00 00 00 	movq   $0x0,0x8(%rax)
ffffffffffe0591d:	00 
ffffffffffe0591e:	90                   	nop
ffffffffffe0591f:	c9                   	leaveq 
ffffffffffe05920:	c3                   	retq   

ffffffffffe05921 <make_runnable>:
ffffffffffe05921:	55                   	push   %rbp
ffffffffffe05922:	48 89 e5             	mov    %rsp,%rbp
ffffffffffe05925:	41 55                	push   %r13
ffffffffffe05927:	41 54                	push   %r12
ffffffffffe05929:	53                   	push   %rbx
ffffffffffe0592a:	48 83 ec 18          	sub    $0x18,%rsp
ffffffffffe0592e:	48 89 7d d8          	mov    %rdi,-0x28(%rbp)
ffffffffffe05932:	89 75 d4             	mov    %esi,-0x2c(%rbp)
ffffffffffe05935:	48 8b 45 d8          	mov    -0x28(%rbp),%rax
ffffffffffe05939:	8b 80 28 01 00 00    	mov    0x128(%rax),%eax
ffffffffffe0593f:	85 c0                	test   %eax,%eax
ffffffffffe05941:	0f 85 eb 00 00 00    	jne    ffffffffffe05a32 <make_runnable+0x111>
ffffffffffe05947:	48 8b 05 aa 41 00 00 	mov    0x41aa(%rip),%rax        # ffffffffffe09af8 <current_thread>
ffffffffffe0594e:	48 85 c0             	test   %rax,%rax
ffffffffffe05951:	74 50                	je     ffffffffffe059a3 <make_runnable+0x82>
ffffffffffe05953:	48 8b 05 9e 41 00 00 	mov    0x419e(%rip),%rax        # ffffffffffe09af8 <current_thread>
ffffffffffe0595a:	4c 8d a8 98 00 00 00 	lea    0x98(%rax),%r13
ffffffffffe05961:	48 8b 05 90 41 00 00 	mov    0x4190(%rip),%rax        # ffffffffffe09af8 <current_thread>
ffffffffffe05968:	4c 8d 60 18          	lea    0x18(%rax),%r12
ffffffffffe0596c:	48 8b 05 85 41 00 00 	mov    0x4185(%rip),%rax        # ffffffffffe09af8 <current_thread>
ffffffffffe05973:	48 8b 58 08          	mov    0x8(%rax),%rbx
ffffffffffe05977:	b8 00 00 00 00       	mov    $0x0,%eax
ffffffffffe0597c:	e8 10 cb ff ff       	callq  ffffffffffe02491 <current_time>
ffffffffffe05981:	4d 89 e8             	mov    %r13,%r8
ffffffffffe05984:	4c 89 e1             	mov    %r12,%rcx
ffffffffffe05987:	48 89 da             	mov    %rbx,%rdx
ffffffffffe0598a:	48 89 c6             	mov    %rax,%rsi
ffffffffffe0598d:	48 8d 05 9c 13 00 00 	lea    0x139c(%rip),%rax        # ffffffffffe06d30 <block_size+0x110>
ffffffffffe05994:	48 89 c7             	mov    %rax,%rdi
ffffffffffe05997:	b8 00 00 00 00       	mov    $0x0,%eax
ffffffffffe0599c:	e8 20 d4 ff ff       	callq  ffffffffffe02dc1 <printf>
ffffffffffe059a1:	eb 01                	jmp    ffffffffffe059a4 <make_runnable+0x83>
ffffffffffe059a3:	90                   	nop
ffffffffffe059a4:	48 8b 45 d8          	mov    -0x28(%rbp),%rax
ffffffffffe059a8:	48 8b 40 08          	mov    0x8(%rax),%rax
ffffffffffe059ac:	48 89 c6             	mov    %rax,%rsi
ffffffffffe059af:	48 8d 05 93 13 00 00 	lea    0x1393(%rip),%rax        # ffffffffffe06d49 <block_size+0x129>
ffffffffffe059b6:	48 89 c7             	mov    %rax,%rdi
ffffffffffe059b9:	b8 00 00 00 00       	mov    $0x0,%eax
ffffffffffe059be:	e8 fe d3 ff ff       	callq  ffffffffffe02dc1 <printf>
ffffffffffe059c3:	b8 00 00 00 00       	mov    $0x0,%eax
ffffffffffe059c8:	e8 c4 ca ff ff       	callq  ffffffffffe02491 <current_time>
ffffffffffe059cd:	48 8b 55 d8          	mov    -0x28(%rbp),%rdx
ffffffffffe059d1:	48 89 82 30 01 00 00 	mov    %rax,0x130(%rdx)
ffffffffffe059d8:	48 8b 45 d8          	mov    -0x28(%rbp),%rax
ffffffffffe059dc:	c7 80 28 01 00 00 01 	movl   $0x1,0x128(%rax)
ffffffffffe059e3:	00 00 00 
ffffffffffe059e6:	8b 05 00 41 00 00    	mov    0x4100(%rip),%eax        # ffffffffffe09aec <runnable_tasks>
ffffffffffe059ec:	83 c0 01             	add    $0x1,%eax
ffffffffffe059ef:	89 05 f7 40 00 00    	mov    %eax,0x40f7(%rip)        # ffffffffffe09aec <runnable_tasks>
ffffffffffe059f5:	8b 45 d4             	mov    -0x2c(%rbp),%eax
ffffffffffe059f8:	89 05 f2 40 00 00    	mov    %eax,0x40f2(%rip)        # ffffffffffe09af0 <proc_was_sleeping>
ffffffffffe059fe:	48 8b 45 d8          	mov    -0x28(%rbp),%rax
ffffffffffe05a02:	48 05 50 01 00 00    	add    $0x150,%rax
ffffffffffe05a08:	48 89 c7             	mov    %rax,%rdi
ffffffffffe05a0b:	e8 c5 f8 ff ff       	callq  ffffffffffe052d5 <enqueue_task>
ffffffffffe05a10:	83 f8 01             	cmp    $0x1,%eax
ffffffffffe05a13:	74 13                	je     ffffffffffe05a28 <make_runnable+0x107>
ffffffffffe05a15:	48 8b 05 dc 40 00 00 	mov    0x40dc(%rip),%rax        # ffffffffffe09af8 <current_thread>
ffffffffffe05a1c:	48 8d 15 1d 3f 00 00 	lea    0x3f1d(%rip),%rdx        # ffffffffffe09940 <idle_thread>
ffffffffffe05a23:	48 39 d0             	cmp    %rdx,%rax
ffffffffffe05a26:	75 0a                	jne    ffffffffffe05a32 <make_runnable+0x111>
ffffffffffe05a28:	c7 05 b6 40 00 00 01 	movl   $0x1,0x40b6(%rip)        # ffffffffffe09ae8 <schedule_needed>
ffffffffffe05a2f:	00 00 00 
ffffffffffe05a32:	90                   	nop
ffffffffffe05a33:	48 83 c4 18          	add    $0x18,%rsp
ffffffffffe05a37:	5b                   	pop    %rbx
ffffffffffe05a38:	41 5c                	pop    %r12
ffffffffffe05a3a:	41 5d                	pop    %r13
ffffffffffe05a3c:	5d                   	pop    %rbp
ffffffffffe05a3d:	c3                   	retq   

ffffffffffe05a3e <process_was_sleeping>:
ffffffffffe05a3e:	55                   	push   %rbp
ffffffffffe05a3f:	48 89 e5             	mov    %rsp,%rbp
ffffffffffe05a42:	8b 05 a8 40 00 00    	mov    0x40a8(%rip),%eax        # ffffffffffe09af0 <proc_was_sleeping>
ffffffffffe05a48:	5d                   	pop    %rbp
ffffffffffe05a49:	c3                   	retq   

ffffffffffe05a4a <timeslice_expired>:
ffffffffffe05a4a:	55                   	push   %rbp
ffffffffffe05a4b:	48 89 e5             	mov    %rsp,%rbp
ffffffffffe05a4e:	41 55                	push   %r13
ffffffffffe05a50:	41 54                	push   %r12
ffffffffffe05a52:	53                   	push   %rbx
ffffffffffe05a53:	48 83 ec 08          	sub    $0x8,%rsp
ffffffffffe05a57:	48 8b 05 9a 40 00 00 	mov    0x409a(%rip),%rax        # ffffffffffe09af8 <current_thread>
ffffffffffe05a5e:	48 85 c0             	test   %rax,%rax
ffffffffffe05a61:	74 50                	je     ffffffffffe05ab3 <timeslice_expired+0x69>
ffffffffffe05a63:	48 8b 05 8e 40 00 00 	mov    0x408e(%rip),%rax        # ffffffffffe09af8 <current_thread>
ffffffffffe05a6a:	4c 8d a8 98 00 00 00 	lea    0x98(%rax),%r13
ffffffffffe05a71:	48 8b 05 80 40 00 00 	mov    0x4080(%rip),%rax        # ffffffffffe09af8 <current_thread>
ffffffffffe05a78:	4c 8d 60 18          	lea    0x18(%rax),%r12
ffffffffffe05a7c:	48 8b 05 75 40 00 00 	mov    0x4075(%rip),%rax        # ffffffffffe09af8 <current_thread>
ffffffffffe05a83:	48 8b 58 08          	mov    0x8(%rax),%rbx
ffffffffffe05a87:	b8 00 00 00 00       	mov    $0x0,%eax
ffffffffffe05a8c:	e8 00 ca ff ff       	callq  ffffffffffe02491 <current_time>
ffffffffffe05a91:	4d 89 e8             	mov    %r13,%r8
ffffffffffe05a94:	4c 89 e1             	mov    %r12,%rcx
ffffffffffe05a97:	48 89 da             	mov    %rbx,%rdx
ffffffffffe05a9a:	48 89 c6             	mov    %rax,%rsi
ffffffffffe05a9d:	48 8d 05 8c 12 00 00 	lea    0x128c(%rip),%rax        # ffffffffffe06d30 <block_size+0x110>
ffffffffffe05aa4:	48 89 c7             	mov    %rax,%rdi
ffffffffffe05aa7:	b8 00 00 00 00       	mov    $0x0,%eax
ffffffffffe05aac:	e8 10 d3 ff ff       	callq  ffffffffffe02dc1 <printf>
ffffffffffe05ab1:	eb 01                	jmp    ffffffffffe05ab4 <timeslice_expired+0x6a>
ffffffffffe05ab3:	90                   	nop
ffffffffffe05ab4:	48 8d 05 9d 12 00 00 	lea    0x129d(%rip),%rax        # ffffffffffe06d58 <block_size+0x138>
ffffffffffe05abb:	48 89 c7             	mov    %rax,%rdi
ffffffffffe05abe:	b8 00 00 00 00       	mov    $0x0,%eax
ffffffffffe05ac3:	e8 f9 d2 ff ff       	callq  ffffffffffe02dc1 <printf>
ffffffffffe05ac8:	c7 05 16 40 00 00 01 	movl   $0x1,0x4016(%rip)        # ffffffffffe09ae8 <schedule_needed>
ffffffffffe05acf:	00 00 00 
ffffffffffe05ad2:	90                   	nop
ffffffffffe05ad3:	48 83 c4 08          	add    $0x8,%rsp
ffffffffffe05ad7:	5b                   	pop    %rbx
ffffffffffe05ad8:	41 5c                	pop    %r12
ffffffffffe05ada:	41 5d                	pop    %r13
ffffffffffe05adc:	5d                   	pop    %rbp
ffffffffffe05add:	c3                   	retq   

ffffffffffe05ade <schedule_now>:
ffffffffffe05ade:	55                   	push   %rbp
ffffffffffe05adf:	48 89 e5             	mov    %rsp,%rbp
ffffffffffe05ae2:	48 83 ec 30          	sub    $0x30,%rsp
ffffffffffe05ae6:	48 89 7d d8          	mov    %rdi,-0x28(%rbp)
ffffffffffe05aea:	b8 00 00 00 00       	mov    $0x0,%eax
ffffffffffe05aef:	e8 9d c9 ff ff       	callq  ffffffffffe02491 <current_time>
ffffffffffe05af4:	48 89 45 e8          	mov    %rax,-0x18(%rbp)
ffffffffffe05af8:	48 83 7d d8 00       	cmpq   $0x0,-0x28(%rbp)
ffffffffffe05afd:	74 33                	je     ffffffffffe05b32 <schedule_now+0x54>
ffffffffffe05aff:	48 8b 05 f2 3f 00 00 	mov    0x3ff2(%rip),%rax        # ffffffffffe09af8 <current_thread>
ffffffffffe05b06:	48 85 c0             	test   %rax,%rax
ffffffffffe05b09:	74 27                	je     ffffffffffe05b32 <schedule_now+0x54>
ffffffffffe05b0b:	48 8b 05 e6 3f 00 00 	mov    0x3fe6(%rip),%rax        # ffffffffffe09af8 <current_thread>
ffffffffffe05b12:	48 8d 15 27 3e 00 00 	lea    0x3e27(%rip),%rdx        # ffffffffffe09940 <idle_thread>
ffffffffffe05b19:	48 39 d0             	cmp    %rdx,%rax
ffffffffffe05b1c:	74 14                	je     ffffffffffe05b32 <schedule_now+0x54>
ffffffffffe05b1e:	48 8b 05 d3 3f 00 00 	mov    0x3fd3(%rip),%rax        # ffffffffffe09af8 <current_thread>
ffffffffffe05b25:	be 00 00 00 00       	mov    $0x0,%esi
ffffffffffe05b2a:	48 89 c7             	mov    %rax,%rdi
ffffffffffe05b2d:	e8 ef fd ff ff       	callq  ffffffffffe05921 <make_runnable>
ffffffffffe05b32:	c7 05 ac 3f 00 00 00 	movl   $0x0,0x3fac(%rip)        # ffffffffffe09ae8 <schedule_needed>
ffffffffffe05b39:	00 00 00 
ffffffffffe05b3c:	b8 00 00 00 00       	mov    $0x0,%eax
ffffffffffe05b41:	e8 37 f8 ff ff       	callq  ffffffffffe0537d <dequeue_next_task>
ffffffffffe05b46:	48 89 45 e0          	mov    %rax,-0x20(%rbp)
ffffffffffe05b4a:	48 83 7d e0 00       	cmpq   $0x0,-0x20(%rbp)
ffffffffffe05b4f:	0f 84 5c 01 00 00    	je     ffffffffffe05cb1 <schedule_now+0x1d3>
ffffffffffe05b55:	48 8b 45 e0          	mov    -0x20(%rbp),%rax
ffffffffffe05b59:	48 2d 50 01 00 00    	sub    $0x150,%rax
ffffffffffe05b5f:	48 89 45 f8          	mov    %rax,-0x8(%rbp)
ffffffffffe05b63:	48 8b 45 e0          	mov    -0x20(%rbp),%rax
ffffffffffe05b67:	48 89 c7             	mov    %rax,%rdi
ffffffffffe05b6a:	e8 51 f8 ff ff       	callq  ffffffffffe053c0 <get_timeslice_length>
ffffffffffe05b6f:	48 89 45 f0          	mov    %rax,-0x10(%rbp)
ffffffffffe05b73:	48 8b 45 f8          	mov    -0x8(%rbp),%rax
ffffffffffe05b77:	48 8b 00             	mov    (%rax),%rax
ffffffffffe05b7a:	48 ba ef be ad ba 02 	movabs $0xabcdef02baadbeef,%rdx
ffffffffffe05b81:	ef cd ab 
ffffffffffe05b84:	48 39 d0             	cmp    %rdx,%rax
ffffffffffe05b87:	75 36                	jne    ffffffffffe05bbf <schedule_now+0xe1>
ffffffffffe05b89:	bf 00 00 ff 00       	mov    $0xff0000,%edi
ffffffffffe05b8e:	e8 8a ca ff ff       	callq  ffffffffffe0261d <fb_setcol>
ffffffffffe05b93:	48 8d 05 e6 11 00 00 	lea    0x11e6(%rip),%rax        # ffffffffffe06d80 <block_size+0x160>
ffffffffffe05b9a:	48 89 c7             	mov    %rax,%rdi
ffffffffffe05b9d:	b8 00 00 00 00       	mov    $0x0,%eax
ffffffffffe05ba2:	e8 1a d2 ff ff       	callq  ffffffffffe02dc1 <printf>
ffffffffffe05ba7:	48 8d 05 22 12 00 00 	lea    0x1222(%rip),%rax        # ffffffffffe06dd0 <block_size+0x1b0>
ffffffffffe05bae:	48 89 c7             	mov    %rax,%rdi
ffffffffffe05bb1:	b8 00 00 00 00       	mov    $0x0,%eax
ffffffffffe05bb6:	e8 06 d2 ff ff       	callq  ffffffffffe02dc1 <printf>
ffffffffffe05bbb:	fa                   	cli    
ffffffffffe05bbc:	f4                   	hlt    
ffffffffffe05bbd:	eb fc                	jmp    ffffffffffe05bbb <schedule_now+0xdd>
ffffffffffe05bbf:	48 8b 45 f8          	mov    -0x8(%rbp),%rax
ffffffffffe05bc3:	48 8b 00             	mov    (%rax),%rax
ffffffffffe05bc6:	48 ba ef be ad ba 01 	movabs $0xabcdef01baadbeef,%rdx
ffffffffffe05bcd:	ef cd ab 
ffffffffffe05bd0:	48 39 d0             	cmp    %rdx,%rax
ffffffffffe05bd3:	74 36                	je     ffffffffffe05c0b <schedule_now+0x12d>
ffffffffffe05bd5:	bf 00 00 ff 00       	mov    $0xff0000,%edi
ffffffffffe05bda:	e8 3e ca ff ff       	callq  ffffffffffe0261d <fb_setcol>
ffffffffffe05bdf:	48 8d 05 2a 12 00 00 	lea    0x122a(%rip),%rax        # ffffffffffe06e10 <block_size+0x1f0>
ffffffffffe05be6:	48 89 c7             	mov    %rax,%rdi
ffffffffffe05be9:	b8 00 00 00 00       	mov    $0x0,%eax
ffffffffffe05bee:	e8 ce d1 ff ff       	callq  ffffffffffe02dc1 <printf>
ffffffffffe05bf3:	48 8d 05 d6 11 00 00 	lea    0x11d6(%rip),%rax        # ffffffffffe06dd0 <block_size+0x1b0>
ffffffffffe05bfa:	48 89 c7             	mov    %rax,%rdi
ffffffffffe05bfd:	b8 00 00 00 00       	mov    $0x0,%eax
ffffffffffe05c02:	e8 ba d1 ff ff       	callq  ffffffffffe02dc1 <printf>
ffffffffffe05c07:	fa                   	cli    
ffffffffffe05c08:	f4                   	hlt    
ffffffffffe05c09:	eb fc                	jmp    ffffffffffe05c07 <schedule_now+0x129>
ffffffffffe05c0b:	48 8d 05 2e 3d 00 00 	lea    0x3d2e(%rip),%rax        # ffffffffffe09940 <idle_thread>
ffffffffffe05c12:	48 39 45 f8          	cmp    %rax,-0x8(%rbp)
ffffffffffe05c16:	75 36                	jne    ffffffffffe05c4e <schedule_now+0x170>
ffffffffffe05c18:	bf 00 00 ff 00       	mov    $0xff0000,%edi
ffffffffffe05c1d:	e8 fb c9 ff ff       	callq  ffffffffffe0261d <fb_setcol>
ffffffffffe05c22:	48 8d 05 3f 12 00 00 	lea    0x123f(%rip),%rax        # ffffffffffe06e68 <block_size+0x248>
ffffffffffe05c29:	48 89 c7             	mov    %rax,%rdi
ffffffffffe05c2c:	b8 00 00 00 00       	mov    $0x0,%eax
ffffffffffe05c31:	e8 8b d1 ff ff       	callq  ffffffffffe02dc1 <printf>
ffffffffffe05c36:	48 8d 05 93 11 00 00 	lea    0x1193(%rip),%rax        # ffffffffffe06dd0 <block_size+0x1b0>
ffffffffffe05c3d:	48 89 c7             	mov    %rax,%rdi
ffffffffffe05c40:	b8 00 00 00 00       	mov    $0x0,%eax
ffffffffffe05c45:	e8 77 d1 ff ff       	callq  ffffffffffe02dc1 <printf>
ffffffffffe05c4a:	fa                   	cli    
ffffffffffe05c4b:	f4                   	hlt    
ffffffffffe05c4c:	eb fc                	jmp    ffffffffffe05c4a <schedule_now+0x16c>
ffffffffffe05c4e:	48 8b 45 f8          	mov    -0x8(%rbp),%rax
ffffffffffe05c52:	8b 80 28 01 00 00    	mov    0x128(%rax),%eax
ffffffffffe05c58:	85 c0                	test   %eax,%eax
ffffffffffe05c5a:	75 36                	jne    ffffffffffe05c92 <schedule_now+0x1b4>
ffffffffffe05c5c:	bf 00 00 ff 00       	mov    $0xff0000,%edi
ffffffffffe05c61:	e8 b7 c9 ff ff       	callq  ffffffffffe0261d <fb_setcol>
ffffffffffe05c66:	48 8d 05 53 12 00 00 	lea    0x1253(%rip),%rax        # ffffffffffe06ec0 <block_size+0x2a0>
ffffffffffe05c6d:	48 89 c7             	mov    %rax,%rdi
ffffffffffe05c70:	b8 00 00 00 00       	mov    $0x0,%eax
ffffffffffe05c75:	e8 47 d1 ff ff       	callq  ffffffffffe02dc1 <printf>
ffffffffffe05c7a:	48 8d 05 4f 11 00 00 	lea    0x114f(%rip),%rax        # ffffffffffe06dd0 <block_size+0x1b0>
ffffffffffe05c81:	48 89 c7             	mov    %rax,%rdi
ffffffffffe05c84:	b8 00 00 00 00       	mov    $0x0,%eax
ffffffffffe05c89:	e8 33 d1 ff ff       	callq  ffffffffffe02dc1 <printf>
ffffffffffe05c8e:	fa                   	cli    
ffffffffffe05c8f:	f4                   	hlt    
ffffffffffe05c90:	eb fc                	jmp    ffffffffffe05c8e <schedule_now+0x1b0>
ffffffffffe05c92:	8b 05 54 3e 00 00    	mov    0x3e54(%rip),%eax        # ffffffffffe09aec <runnable_tasks>
ffffffffffe05c98:	83 e8 01             	sub    $0x1,%eax
ffffffffffe05c9b:	89 05 4b 3e 00 00    	mov    %eax,0x3e4b(%rip)        # ffffffffffe09aec <runnable_tasks>
ffffffffffe05ca1:	48 8b 45 f8          	mov    -0x8(%rbp),%rax
ffffffffffe05ca5:	c7 80 28 01 00 00 00 	movl   $0x0,0x128(%rax)
ffffffffffe05cac:	00 00 00 
ffffffffffe05caf:	eb 53                	jmp    ffffffffffe05d04 <schedule_now+0x226>
ffffffffffe05cb1:	48 8d 05 88 3c 00 00 	lea    0x3c88(%rip),%rax        # ffffffffffe09940 <idle_thread>
ffffffffffe05cb8:	48 89 45 f8          	mov    %rax,-0x8(%rbp)
ffffffffffe05cbc:	48 c7 45 f0 00 00 00 	movq   $0x0,-0x10(%rbp)
ffffffffffe05cc3:	00 
ffffffffffe05cc4:	8b 05 22 3e 00 00    	mov    0x3e22(%rip),%eax        # ffffffffffe09aec <runnable_tasks>
ffffffffffe05cca:	85 c0                	test   %eax,%eax
ffffffffffe05ccc:	74 36                	je     ffffffffffe05d04 <schedule_now+0x226>
ffffffffffe05cce:	bf 00 00 ff 00       	mov    $0xff0000,%edi
ffffffffffe05cd3:	e8 45 c9 ff ff       	callq  ffffffffffe0261d <fb_setcol>
ffffffffffe05cd8:	48 8d 05 31 12 00 00 	lea    0x1231(%rip),%rax        # ffffffffffe06f10 <block_size+0x2f0>
ffffffffffe05cdf:	48 89 c7             	mov    %rax,%rdi
ffffffffffe05ce2:	b8 00 00 00 00       	mov    $0x0,%eax
ffffffffffe05ce7:	e8 d5 d0 ff ff       	callq  ffffffffffe02dc1 <printf>
ffffffffffe05cec:	48 8d 05 dd 10 00 00 	lea    0x10dd(%rip),%rax        # ffffffffffe06dd0 <block_size+0x1b0>
ffffffffffe05cf3:	48 89 c7             	mov    %rax,%rdi
ffffffffffe05cf6:	b8 00 00 00 00       	mov    $0x0,%eax
ffffffffffe05cfb:	e8 c1 d0 ff ff       	callq  ffffffffffe02dc1 <printf>
ffffffffffe05d00:	fa                   	cli    
ffffffffffe05d01:	f4                   	hlt    
ffffffffffe05d02:	eb fc                	jmp    ffffffffffe05d00 <schedule_now+0x222>
ffffffffffe05d04:	48 8b 45 f0          	mov    -0x10(%rbp),%rax
ffffffffffe05d08:	48 89 c7             	mov    %rax,%rdi
ffffffffffe05d0b:	e8 83 09 00 00       	callq  ffffffffffe06693 <set_timeslice_len>
ffffffffffe05d10:	48 8b 05 e1 3d 00 00 	mov    0x3de1(%rip),%rax        # ffffffffffe09af8 <current_thread>
ffffffffffe05d17:	48 39 45 f8          	cmp    %rax,-0x8(%rbp)
ffffffffffe05d1b:	0f 84 ea 00 00 00    	je     ffffffffffe05e0b <schedule_now+0x32d>
ffffffffffe05d21:	48 8b 05 d0 3d 00 00 	mov    0x3dd0(%rip),%rax        # ffffffffffe09af8 <current_thread>
ffffffffffe05d28:	48 85 c0             	test   %rax,%rax
ffffffffffe05d2b:	74 7b                	je     ffffffffffe05da8 <schedule_now+0x2ca>
ffffffffffe05d2d:	48 8b 05 c4 3d 00 00 	mov    0x3dc4(%rip),%rax        # ffffffffffe09af8 <current_thread>
ffffffffffe05d34:	48 8d 15 05 3c 00 00 	lea    0x3c05(%rip),%rdx        # ffffffffffe09940 <idle_thread>
ffffffffffe05d3b:	48 39 d0             	cmp    %rdx,%rax
ffffffffffe05d3e:	74 68                	je     ffffffffffe05da8 <schedule_now+0x2ca>
ffffffffffe05d40:	48 8b 05 b1 3d 00 00 	mov    0x3db1(%rip),%rax        # ffffffffffe09af8 <current_thread>
ffffffffffe05d47:	48 8b b8 38 01 00 00 	mov    0x138(%rax),%rdi
ffffffffffe05d4e:	48 8b 05 a3 3d 00 00 	mov    0x3da3(%rip),%rax        # ffffffffffe09af8 <current_thread>
ffffffffffe05d55:	48 8b b0 40 01 00 00 	mov    0x140(%rax),%rsi
ffffffffffe05d5c:	48 8b 05 95 3d 00 00 	mov    0x3d95(%rip),%rax        # ffffffffffe09af8 <current_thread>
ffffffffffe05d63:	48 8d 88 98 00 00 00 	lea    0x98(%rax),%rcx
ffffffffffe05d6a:	48 8b 05 87 3d 00 00 	mov    0x3d87(%rip),%rax        # ffffffffffe09af8 <current_thread>
ffffffffffe05d71:	48 8d 50 18          	lea    0x18(%rax),%rdx
ffffffffffe05d75:	48 8b 05 7c 3d 00 00 	mov    0x3d7c(%rip),%rax        # ffffffffffe09af8 <current_thread>
ffffffffffe05d7c:	48 8b 40 08          	mov    0x8(%rax),%rax
ffffffffffe05d80:	48 83 ec 08          	sub    $0x8,%rsp
ffffffffffe05d84:	ff 75 e8             	pushq  -0x18(%rbp)
ffffffffffe05d87:	49 89 f9             	mov    %rdi,%r9
ffffffffffe05d8a:	49 89 f0             	mov    %rsi,%r8
ffffffffffe05d8d:	48 89 c6             	mov    %rax,%rsi
ffffffffffe05d90:	48 8d 05 b1 11 00 00 	lea    0x11b1(%rip),%rax        # ffffffffffe06f48 <block_size+0x328>
ffffffffffe05d97:	48 89 c7             	mov    %rax,%rdi
ffffffffffe05d9a:	b8 00 00 00 00       	mov    $0x0,%eax
ffffffffffe05d9f:	e8 1d d0 ff ff       	callq  ffffffffffe02dc1 <printf>
ffffffffffe05da4:	48 83 c4 10          	add    $0x10,%rsp
ffffffffffe05da8:	48 8b 45 f8          	mov    -0x8(%rbp),%rax
ffffffffffe05dac:	48 8d 88 98 00 00 00 	lea    0x98(%rax),%rcx
ffffffffffe05db3:	48 8b 45 f8          	mov    -0x8(%rbp),%rax
ffffffffffe05db7:	48 8d 50 18          	lea    0x18(%rax),%rdx
ffffffffffe05dbb:	48 8b 45 f8          	mov    -0x8(%rbp),%rax
ffffffffffe05dbf:	48 8b 40 08          	mov    0x8(%rax),%rax
ffffffffffe05dc3:	48 89 c6             	mov    %rax,%rsi
ffffffffffe05dc6:	48 8d 05 cf 11 00 00 	lea    0x11cf(%rip),%rax        # ffffffffffe06f9c <block_size+0x37c>
ffffffffffe05dcd:	48 89 c7             	mov    %rax,%rdi
ffffffffffe05dd0:	b8 00 00 00 00       	mov    $0x0,%eax
ffffffffffe05dd5:	e8 e7 cf ff ff       	callq  ffffffffffe02dc1 <printf>
ffffffffffe05dda:	48 8b 45 f8          	mov    -0x8(%rbp),%rax
ffffffffffe05dde:	48 8b 55 e8          	mov    -0x18(%rbp),%rdx
ffffffffffe05de2:	48 89 90 38 01 00 00 	mov    %rdx,0x138(%rax)
ffffffffffe05de9:	48 8b 45 f8          	mov    -0x8(%rbp),%rax
ffffffffffe05ded:	48 8b 90 30 01 00 00 	mov    0x130(%rax),%rdx
ffffffffffe05df4:	48 8b 45 f8          	mov    -0x8(%rbp),%rax
ffffffffffe05df8:	48 89 90 40 01 00 00 	mov    %rdx,0x140(%rax)
ffffffffffe05dff:	48 8b 45 f8          	mov    -0x8(%rbp),%rax
ffffffffffe05e03:	48 89 c7             	mov    %rax,%rdi
ffffffffffe05e06:	e8 53 02 00 00       	callq  ffffffffffe0605e <context_switch>
ffffffffffe05e0b:	90                   	nop
ffffffffffe05e0c:	c9                   	leaveq 
ffffffffffe05e0d:	c3                   	retq   

ffffffffffe05e0e <possibly_schedule>:
ffffffffffe05e0e:	55                   	push   %rbp
ffffffffffe05e0f:	48 89 e5             	mov    %rsp,%rbp
ffffffffffe05e12:	8b 05 d0 3c 00 00    	mov    0x3cd0(%rip),%eax        # ffffffffffe09ae8 <schedule_needed>
ffffffffffe05e18:	85 c0                	test   %eax,%eax
ffffffffffe05e1a:	74 0a                	je     ffffffffffe05e26 <possibly_schedule+0x18>
ffffffffffe05e1c:	bf 01 00 00 00       	mov    $0x1,%edi
ffffffffffe05e21:	e8 b8 fc ff ff       	callq  ffffffffffe05ade <schedule_now>
ffffffffffe05e26:	90                   	nop
ffffffffffe05e27:	5d                   	pop    %rbp
ffffffffffe05e28:	c3                   	retq   

ffffffffffe05e29 <start_multitasking>:
ffffffffffe05e29:	55                   	push   %rbp
ffffffffffe05e2a:	48 89 e5             	mov    %rsp,%rbp
ffffffffffe05e2d:	48 83 ec 10          	sub    $0x10,%rsp
ffffffffffe05e31:	ba a8 01 00 00       	mov    $0x1a8,%edx
ffffffffffe05e36:	be 00 00 00 00       	mov    $0x0,%esi
ffffffffffe05e3b:	48 8d 05 fe 3a 00 00 	lea    0x3afe(%rip),%rax        # ffffffffffe09940 <idle_thread>
ffffffffffe05e42:	48 89 c7             	mov    %rax,%rdi
ffffffffffe05e45:	e8 b9 f5 ff ff       	callq  ffffffffffe05403 <memset>
ffffffffffe05e4a:	48 8d 05 69 11 00 00 	lea    0x1169(%rip),%rax        # ffffffffffe06fba <block_size+0x39a>
ffffffffffe05e51:	48 89 45 f8          	mov    %rax,-0x8(%rbp)
ffffffffffe05e55:	48 8b 45 f8          	mov    -0x8(%rbp),%rax
ffffffffffe05e59:	ba 09 00 00 00       	mov    $0x9,%edx
ffffffffffe05e5e:	48 89 c6             	mov    %rax,%rsi
ffffffffffe05e61:	48 8d 05 f0 3a 00 00 	lea    0x3af0(%rip),%rax        # ffffffffffe09958 <idle_thread+0x18>
ffffffffffe05e68:	48 89 c7             	mov    %rax,%rdi
ffffffffffe05e6b:	e8 de f5 ff ff       	callq  ffffffffffe0544e <memcpy>
ffffffffffe05e70:	48 8d 05 c9 3a 00 00 	lea    0x3ac9(%rip),%rax        # ffffffffffe09940 <idle_thread>
ffffffffffe05e77:	48 89 05 7a 3c 00 00 	mov    %rax,0x3c7a(%rip)        # ffffffffffe09af8 <current_thread>
ffffffffffe05e7e:	c7 05 60 3c 00 00 01 	movl   $0x1,0x3c60(%rip)        # ffffffffffe09ae8 <schedule_needed>
ffffffffffe05e85:	00 00 00 
ffffffffffe05e88:	8b 05 5a 3c 00 00    	mov    0x3c5a(%rip),%eax        # ffffffffffe09ae8 <schedule_needed>
ffffffffffe05e8e:	85 c0                	test   %eax,%eax
ffffffffffe05e90:	74 0a                	je     ffffffffffe05e9c <start_multitasking+0x73>
ffffffffffe05e92:	bf 00 00 00 00       	mov    $0x0,%edi
ffffffffffe05e97:	e8 42 fc ff ff       	callq  ffffffffffe05ade <schedule_now>
ffffffffffe05e9c:	fb                   	sti    
ffffffffffe05e9d:	f4                   	hlt    
ffffffffffe05e9e:	fa                   	cli    
ffffffffffe05e9f:	eb e7                	jmp    ffffffffffe05e88 <start_multitasking+0x5f>

ffffffffffe05ea1 <dump_process_state>:
ffffffffffe05ea1:	55                   	push   %rbp
ffffffffffe05ea2:	48 89 e5             	mov    %rsp,%rbp
ffffffffffe05ea5:	48 83 ec 10          	sub    $0x10,%rsp
ffffffffffe05ea9:	48 8b 05 50 3c 00 00 	mov    0x3c50(%rip),%rax        # ffffffffffe09b00 <lst>
ffffffffffe05eb0:	48 89 45 f8          	mov    %rax,-0x8(%rbp)
ffffffffffe05eb4:	48 8d 05 05 11 00 00 	lea    0x1105(%rip),%rax        # ffffffffffe06fc0 <block_size+0x3a0>
ffffffffffe05ebb:	48 89 c7             	mov    %rax,%rdi
ffffffffffe05ebe:	b8 00 00 00 00       	mov    $0x0,%eax
ffffffffffe05ec3:	e8 f9 ce ff ff       	callq  ffffffffffe02dc1 <printf>
ffffffffffe05ec8:	eb 4e                	jmp    ffffffffffe05f18 <dump_process_state+0x77>
ffffffffffe05eca:	48 8b 45 f8          	mov    -0x8(%rbp),%rax
ffffffffffe05ece:	8b b0 28 01 00 00    	mov    0x128(%rax),%esi
ffffffffffe05ed4:	48 8b 45 f8          	mov    -0x8(%rbp),%rax
ffffffffffe05ed8:	48 8d 88 98 00 00 00 	lea    0x98(%rax),%rcx
ffffffffffe05edf:	48 8b 45 f8          	mov    -0x8(%rbp),%rax
ffffffffffe05ee3:	48 8d 50 18          	lea    0x18(%rax),%rdx
ffffffffffe05ee7:	48 8b 45 f8          	mov    -0x8(%rbp),%rax
ffffffffffe05eeb:	48 8b 40 08          	mov    0x8(%rax),%rax
ffffffffffe05eef:	41 89 f0             	mov    %esi,%r8d
ffffffffffe05ef2:	48 89 c6             	mov    %rax,%rsi
ffffffffffe05ef5:	48 8d 05 d4 10 00 00 	lea    0x10d4(%rip),%rax        # ffffffffffe06fd0 <block_size+0x3b0>
ffffffffffe05efc:	48 89 c7             	mov    %rax,%rdi
ffffffffffe05eff:	b8 00 00 00 00       	mov    $0x0,%eax
ffffffffffe05f04:	e8 b8 ce ff ff       	callq  ffffffffffe02dc1 <printf>
ffffffffffe05f09:	48 8b 45 f8          	mov    -0x8(%rbp),%rax
ffffffffffe05f0d:	48 8b 80 18 01 00 00 	mov    0x118(%rax),%rax
ffffffffffe05f14:	48 89 45 f8          	mov    %rax,-0x8(%rbp)
ffffffffffe05f18:	48 83 7d f8 00       	cmpq   $0x0,-0x8(%rbp)
ffffffffffe05f1d:	75 ab                	jne    ffffffffffe05eca <dump_process_state+0x29>
ffffffffffe05f1f:	48 8d 05 ce 10 00 00 	lea    0x10ce(%rip),%rax        # ffffffffffe06ff4 <block_size+0x3d4>
ffffffffffe05f26:	48 89 c7             	mov    %rax,%rdi
ffffffffffe05f29:	b8 00 00 00 00       	mov    $0x0,%eax
ffffffffffe05f2e:	e8 8e ce ff ff       	callq  ffffffffffe02dc1 <printf>
ffffffffffe05f33:	90                   	nop
ffffffffffe05f34:	c9                   	leaveq 
ffffffffffe05f35:	c3                   	retq   

ffffffffffe05f36 <c_context_switch_1>:
ffffffffffe05f36:	55                   	push   %rbp
ffffffffffe05f37:	48 89 e5             	mov    %rsp,%rbp
ffffffffffe05f3a:	48 83 ec 10          	sub    $0x10,%rsp
ffffffffffe05f3e:	48 89 7d f8          	mov    %rdi,-0x8(%rbp)
ffffffffffe05f42:	48 89 75 f0          	mov    %rsi,-0x10(%rbp)
ffffffffffe05f46:	48 8b 05 ab 3b 00 00 	mov    0x3bab(%rip),%rax        # ffffffffffe09af8 <current_thread>
ffffffffffe05f4d:	48 85 c0             	test   %rax,%rax
ffffffffffe05f50:	74 12                	je     ffffffffffe05f64 <c_context_switch_1+0x2e>
ffffffffffe05f52:	48 8b 05 9f 3b 00 00 	mov    0x3b9f(%rip),%rax        # ffffffffffe09af8 <current_thread>
ffffffffffe05f59:	48 8b 55 f0          	mov    -0x10(%rbp),%rdx
ffffffffffe05f5d:	48 89 90 48 01 00 00 	mov    %rdx,0x148(%rax)
ffffffffffe05f64:	48 8b 45 f8          	mov    -0x8(%rbp),%rax
ffffffffffe05f68:	48 8b 80 48 01 00 00 	mov    0x148(%rax),%rax
ffffffffffe05f6f:	c9                   	leaveq 
ffffffffffe05f70:	c3                   	retq   

ffffffffffe05f71 <c_context_switch_2>:
ffffffffffe05f71:	55                   	push   %rbp
ffffffffffe05f72:	48 89 e5             	mov    %rsp,%rbp
ffffffffffe05f75:	48 83 ec 20          	sub    $0x20,%rsp
ffffffffffe05f79:	48 89 7d e8          	mov    %rdi,-0x18(%rbp)
ffffffffffe05f7d:	48 8b 05 74 3b 00 00 	mov    0x3b74(%rip),%rax        # ffffffffffe09af8 <current_thread>
ffffffffffe05f84:	48 89 45 f8          	mov    %rax,-0x8(%rbp)
ffffffffffe05f88:	48 83 7d f8 00       	cmpq   $0x0,-0x8(%rbp)
ffffffffffe05f8d:	0f 84 bd 00 00 00    	je     ffffffffffe06050 <c_context_switch_2+0xdf>
ffffffffffe05f93:	48 8b 45 f8          	mov    -0x8(%rbp),%rax
ffffffffffe05f97:	8b 80 2c 01 00 00    	mov    0x12c(%rax),%eax
ffffffffffe05f9d:	85 c0                	test   %eax,%eax
ffffffffffe05f9f:	0f 84 ab 00 00 00    	je     ffffffffffe06050 <c_context_switch_2+0xdf>
ffffffffffe05fa5:	48 8b 45 f8          	mov    -0x8(%rbp),%rax
ffffffffffe05fa9:	48 8d 90 98 00 00 00 	lea    0x98(%rax),%rdx
ffffffffffe05fb0:	48 8b 45 f8          	mov    -0x8(%rbp),%rax
ffffffffffe05fb4:	48 8b 40 08          	mov    0x8(%rax),%rax
ffffffffffe05fb8:	48 89 c6             	mov    %rax,%rsi
ffffffffffe05fbb:	48 8d 05 3c 10 00 00 	lea    0x103c(%rip),%rax        # ffffffffffe06ffe <block_size+0x3de>
ffffffffffe05fc2:	48 89 c7             	mov    %rax,%rdi
ffffffffffe05fc5:	b8 00 00 00 00       	mov    $0x0,%eax
ffffffffffe05fca:	e8 f2 cd ff ff       	callq  ffffffffffe02dc1 <printf>
ffffffffffe05fcf:	48 8b 45 f8          	mov    -0x8(%rbp),%rax
ffffffffffe05fd3:	48 b9 ef be ad ba 02 	movabs $0xabcdef02baadbeef,%rcx
ffffffffffe05fda:	ef cd ab 
ffffffffffe05fdd:	48 89 08             	mov    %rcx,(%rax)
ffffffffffe05fe0:	48 8b 45 f8          	mov    -0x8(%rbp),%rax
ffffffffffe05fe4:	48 8b 80 90 01 00 00 	mov    0x190(%rax),%rax
ffffffffffe05feb:	48 89 c7             	mov    %rax,%rdi
ffffffffffe05fee:	e8 8a ef ff ff       	callq  ffffffffffe04f7d <free_page>
ffffffffffe05ff3:	48 8b 45 f8          	mov    -0x8(%rbp),%rax
ffffffffffe05ff7:	48 8b 80 88 01 00 00 	mov    0x188(%rax),%rax
ffffffffffe05ffe:	48 85 c0             	test   %rax,%rax
ffffffffffe06001:	74 1b                	je     ffffffffffe0601e <c_context_switch_2+0xad>
ffffffffffe06003:	48 8b 45 f8          	mov    -0x8(%rbp),%rax
ffffffffffe06007:	48 8b 80 88 01 00 00 	mov    0x188(%rax),%rax
ffffffffffe0600e:	48 89 45 f0          	mov    %rax,-0x10(%rbp)
ffffffffffe06012:	48 8b 45 f0          	mov    -0x10(%rbp),%rax
ffffffffffe06016:	48 89 c7             	mov    %rax,%rdi
ffffffffffe06019:	e8 5f ef ff ff       	callq  ffffffffffe04f7d <free_page>
ffffffffffe0601e:	48 8b 45 f8          	mov    -0x8(%rbp),%rax
ffffffffffe06022:	48 8b 80 88 01 00 00 	mov    0x188(%rax),%rax
ffffffffffe06029:	48 85 c0             	test   %rax,%rax
ffffffffffe0602c:	74 0c                	je     ffffffffffe0603a <c_context_switch_2+0xc9>
ffffffffffe0602e:	48 8b 45 f8          	mov    -0x8(%rbp),%rax
ffffffffffe06032:	48 89 c7             	mov    %rax,%rdi
ffffffffffe06035:	e8 e9 f0 ff ff       	callq  ffffffffffe05123 <free>
ffffffffffe0603a:	48 8b 05 bf 3a 00 00 	mov    0x3abf(%rip),%rax        # ffffffffffe09b00 <lst>
ffffffffffe06041:	48 85 c0             	test   %rax,%rax
ffffffffffe06044:	75 0a                	jne    ffffffffffe06050 <c_context_switch_2+0xdf>
ffffffffffe06046:	b8 00 00 00 00       	mov    $0x0,%eax
ffffffffffe0604b:	e8 82 ed ff ff       	callq  ffffffffffe04dd2 <shutdown>
ffffffffffe06050:	48 8b 45 e8          	mov    -0x18(%rbp),%rax
ffffffffffe06054:	48 89 05 9d 3a 00 00 	mov    %rax,0x3a9d(%rip)        # ffffffffffe09af8 <current_thread>
ffffffffffe0605b:	90                   	nop
ffffffffffe0605c:	c9                   	leaveq 
ffffffffffe0605d:	c3                   	retq   

ffffffffffe0605e <context_switch>:
ffffffffffe0605e:	53                   	push   %rbx
ffffffffffe0605f:	55                   	push   %rbp
ffffffffffe06060:	41 54                	push   %r12
ffffffffffe06062:	41 55                	push   %r13
ffffffffffe06064:	41 56                	push   %r14
ffffffffffe06066:	41 57                	push   %r15
ffffffffffe06068:	48 89 e6             	mov    %rsp,%rsi
ffffffffffe0606b:	57                   	push   %rdi
ffffffffffe0606c:	e8 c5 fe ff ff       	callq  ffffffffffe05f36 <c_context_switch_1>
ffffffffffe06071:	5f                   	pop    %rdi
ffffffffffe06072:	48 89 c4             	mov    %rax,%rsp
ffffffffffe06075:	e8 f7 fe ff ff       	callq  ffffffffffe05f71 <c_context_switch_2>
ffffffffffe0607a:	41 5f                	pop    %r15
ffffffffffe0607c:	41 5e                	pop    %r14
ffffffffffe0607e:	41 5d                	pop    %r13
ffffffffffe06080:	41 5c                	pop    %r12
ffffffffffe06082:	5d                   	pop    %rbp
ffffffffffe06083:	5b                   	pop    %rbx
ffffffffffe06084:	c3                   	retq   
ffffffffffe06085:	90                   	nop
ffffffffffe06086:	0f 0b                	ud2    

ffffffffffe06088 <c_thread_start>:
ffffffffffe06088:	55                   	push   %rbp
ffffffffffe06089:	48 89 e5             	mov    %rsp,%rbp
ffffffffffe0608c:	48 83 ec 10          	sub    $0x10,%rsp
ffffffffffe06090:	48 89 7d f8          	mov    %rdi,-0x8(%rbp)
ffffffffffe06094:	48 89 75 f0          	mov    %rsi,-0x10(%rbp)
ffffffffffe06098:	48 8b 45 f0          	mov    -0x10(%rbp),%rax
ffffffffffe0609c:	48 8b 55 f8          	mov    -0x8(%rbp),%rdx
ffffffffffe060a0:	48 89 c7             	mov    %rax,%rdi
ffffffffffe060a3:	ff d2                	callq  *%rdx
ffffffffffe060a5:	b8 00 00 00 00       	mov    $0x0,%eax
ffffffffffe060aa:	e8 0d 02 00 00       	callq  ffffffffffe062bc <exit_thread>
ffffffffffe060af:	90                   	nop
ffffffffffe060b0:	c9                   	leaveq 
ffffffffffe060b1:	c3                   	retq   

ffffffffffe060b2 <thread_start>:
ffffffffffe060b2:	5e                   	pop    %rsi
ffffffffffe060b3:	5f                   	pop    %rdi
ffffffffffe060b4:	e8 cf ff ff ff       	callq  ffffffffffe06088 <c_thread_start>
ffffffffffe060b9:	90                   	nop
ffffffffffe060ba:	0f 0b                	ud2    

ffffffffffe060bc <thread_init>:
ffffffffffe060bc:	55                   	push   %rbp
ffffffffffe060bd:	48 89 e5             	mov    %rsp,%rbp
ffffffffffe060c0:	48 83 c4 80          	add    $0xffffffffffffff80,%rsp
ffffffffffe060c4:	48 89 7d 98          	mov    %rdi,-0x68(%rbp)
ffffffffffe060c8:	48 89 75 90          	mov    %rsi,-0x70(%rbp)
ffffffffffe060cc:	48 89 55 88          	mov    %rdx,-0x78(%rbp)
ffffffffffe060d0:	bf ab 00 00 00       	mov    $0xab,%edi
ffffffffffe060d5:	e8 07 ee ff ff       	callq  ffffffffffe04ee1 <get_free_page>
ffffffffffe060da:	48 89 45 f0          	mov    %rax,-0x10(%rbp)
ffffffffffe060de:	48 8b 45 f0          	mov    -0x10(%rbp),%rax
ffffffffffe060e2:	48 05 00 10 00 00    	add    $0x1000,%rax
ffffffffffe060e8:	48 89 45 b8          	mov    %rax,-0x48(%rbp)
ffffffffffe060ec:	48 8b 45 b8          	mov    -0x48(%rbp),%rax
ffffffffffe060f0:	48 89 45 a0          	mov    %rax,-0x60(%rbp)
ffffffffffe060f4:	48 8b 45 90          	mov    -0x70(%rbp),%rax
ffffffffffe060f8:	48 8d 55 a0          	lea    -0x60(%rbp),%rdx
ffffffffffe060fc:	48 89 55 c8          	mov    %rdx,-0x38(%rbp)
ffffffffffe06100:	48 89 45 c0          	mov    %rax,-0x40(%rbp)
ffffffffffe06104:	48 8b 45 c8          	mov    -0x38(%rbp),%rax
ffffffffffe06108:	48 8b 00             	mov    (%rax),%rax
ffffffffffe0610b:	48 8d 50 f8          	lea    -0x8(%rax),%rdx
ffffffffffe0610f:	48 8b 45 c8          	mov    -0x38(%rbp),%rax
ffffffffffe06113:	48 89 10             	mov    %rdx,(%rax)
ffffffffffe06116:	48 8b 45 c8          	mov    -0x38(%rbp),%rax
ffffffffffe0611a:	48 8b 00             	mov    (%rax),%rax
ffffffffffe0611d:	48 8b 55 c0          	mov    -0x40(%rbp),%rdx
ffffffffffe06121:	48 89 10             	mov    %rdx,(%rax)
ffffffffffe06124:	90                   	nop
ffffffffffe06125:	48 8b 45 88          	mov    -0x78(%rbp),%rax
ffffffffffe06129:	48 8d 55 a0          	lea    -0x60(%rbp),%rdx
ffffffffffe0612d:	48 89 55 d8          	mov    %rdx,-0x28(%rbp)
ffffffffffe06131:	48 89 45 d0          	mov    %rax,-0x30(%rbp)
ffffffffffe06135:	48 8b 45 d8          	mov    -0x28(%rbp),%rax
ffffffffffe06139:	48 8b 00             	mov    (%rax),%rax
ffffffffffe0613c:	48 8d 50 f8          	lea    -0x8(%rax),%rdx
ffffffffffe06140:	48 8b 45 d8          	mov    -0x28(%rbp),%rax
ffffffffffe06144:	48 89 10             	mov    %rdx,(%rax)
ffffffffffe06147:	48 8b 45 d8          	mov    -0x28(%rbp),%rax
ffffffffffe0614b:	48 8b 00             	mov    (%rax),%rax
ffffffffffe0614e:	48 8b 55 d0          	mov    -0x30(%rbp),%rdx
ffffffffffe06152:	48 89 10             	mov    %rdx,(%rax)
ffffffffffe06155:	90                   	nop
ffffffffffe06156:	48 8d 15 55 ff ff ff 	lea    -0xab(%rip),%rdx        # ffffffffffe060b2 <thread_start>
ffffffffffe0615d:	48 8d 45 a0          	lea    -0x60(%rbp),%rax
ffffffffffe06161:	48 89 45 e8          	mov    %rax,-0x18(%rbp)
ffffffffffe06165:	48 89 55 e0          	mov    %rdx,-0x20(%rbp)
ffffffffffe06169:	48 8b 45 e8          	mov    -0x18(%rbp),%rax
ffffffffffe0616d:	48 8b 00             	mov    (%rax),%rax
ffffffffffe06170:	48 8d 50 f8          	lea    -0x8(%rax),%rdx
ffffffffffe06174:	48 8b 45 e8          	mov    -0x18(%rbp),%rax
ffffffffffe06178:	48 89 10             	mov    %rdx,(%rax)
ffffffffffe0617b:	48 8b 45 e8          	mov    -0x18(%rbp),%rax
ffffffffffe0617f:	48 8b 00             	mov    (%rax),%rax
ffffffffffe06182:	48 8b 55 e0          	mov    -0x20(%rbp),%rdx
ffffffffffe06186:	48 89 10             	mov    %rdx,(%rax)
ffffffffffe06189:	90                   	nop
ffffffffffe0618a:	c7 45 fc 00 00 00 00 	movl   $0x0,-0x4(%rbp)
ffffffffffe06191:	eb 35                	jmp    ffffffffffe061c8 <thread_init+0x10c>
ffffffffffe06193:	48 8d 45 a0          	lea    -0x60(%rbp),%rax
ffffffffffe06197:	48 89 45 b0          	mov    %rax,-0x50(%rbp)
ffffffffffe0619b:	48 c7 45 a8 00 00 00 	movq   $0x0,-0x58(%rbp)
ffffffffffe061a2:	00 
ffffffffffe061a3:	48 8b 45 b0          	mov    -0x50(%rbp),%rax
ffffffffffe061a7:	48 8b 00             	mov    (%rax),%rax
ffffffffffe061aa:	48 8d 50 f8          	lea    -0x8(%rax),%rdx
ffffffffffe061ae:	48 8b 45 b0          	mov    -0x50(%rbp),%rax
ffffffffffe061b2:	48 89 10             	mov    %rdx,(%rax)
ffffffffffe061b5:	48 8b 45 b0          	mov    -0x50(%rbp),%rax
ffffffffffe061b9:	48 8b 00             	mov    (%rax),%rax
ffffffffffe061bc:	48 8b 55 a8          	mov    -0x58(%rbp),%rdx
ffffffffffe061c0:	48 89 10             	mov    %rdx,(%rax)
ffffffffffe061c3:	90                   	nop
ffffffffffe061c4:	83 45 fc 01          	addl   $0x1,-0x4(%rbp)
ffffffffffe061c8:	83 7d fc 05          	cmpl   $0x5,-0x4(%rbp)
ffffffffffe061cc:	7e c5                	jle    ffffffffffe06193 <thread_init+0xd7>
ffffffffffe061ce:	48 8b 45 98          	mov    -0x68(%rbp),%rax
ffffffffffe061d2:	ba a8 01 00 00       	mov    $0x1a8,%edx
ffffffffffe061d7:	be 00 00 00 00       	mov    $0x0,%esi
ffffffffffe061dc:	48 89 c7             	mov    %rax,%rdi
ffffffffffe061df:	e8 1f f2 ff ff       	callq  ffffffffffe05403 <memset>
ffffffffffe061e4:	48 8b 55 a0          	mov    -0x60(%rbp),%rdx
ffffffffffe061e8:	48 8b 45 98          	mov    -0x68(%rbp),%rax
ffffffffffe061ec:	48 89 90 48 01 00 00 	mov    %rdx,0x148(%rax)
ffffffffffe061f3:	48 8b 05 ae 16 00 00 	mov    0x16ae(%rip),%rax        # ffffffffffe078a8 <pid_counter>
ffffffffffe061fa:	48 8d 50 01          	lea    0x1(%rax),%rdx
ffffffffffe061fe:	48 89 15 a3 16 00 00 	mov    %rdx,0x16a3(%rip)        # ffffffffffe078a8 <pid_counter>
ffffffffffe06205:	48 8b 55 98          	mov    -0x68(%rbp),%rdx
ffffffffffe06209:	48 89 42 08          	mov    %rax,0x8(%rdx)
ffffffffffe0620d:	48 8b 15 ec 38 00 00 	mov    0x38ec(%rip),%rdx        # ffffffffffe09b00 <lst>
ffffffffffe06214:	48 8b 45 98          	mov    -0x68(%rbp),%rax
ffffffffffe06218:	48 89 90 18 01 00 00 	mov    %rdx,0x118(%rax)
ffffffffffe0621f:	48 8b 05 da 38 00 00 	mov    0x38da(%rip),%rax        # ffffffffffe09b00 <lst>
ffffffffffe06226:	48 85 c0             	test   %rax,%rax
ffffffffffe06229:	74 12                	je     ffffffffffe0623d <thread_init+0x181>
ffffffffffe0622b:	48 8b 05 ce 38 00 00 	mov    0x38ce(%rip),%rax        # ffffffffffe09b00 <lst>
ffffffffffe06232:	48 8b 55 98          	mov    -0x68(%rbp),%rdx
ffffffffffe06236:	48 89 90 20 01 00 00 	mov    %rdx,0x120(%rax)
ffffffffffe0623d:	48 8b 45 98          	mov    -0x68(%rbp),%rax
ffffffffffe06241:	48 89 05 b8 38 00 00 	mov    %rax,0x38b8(%rip)        # ffffffffffe09b00 <lst>
ffffffffffe06248:	48 8b 45 98          	mov    -0x68(%rbp),%rax
ffffffffffe0624c:	48 b9 ef be ad ba 01 	movabs $0xabcdef01baadbeef,%rcx
ffffffffffe06253:	ef cd ab 
ffffffffffe06256:	48 89 08             	mov    %rcx,(%rax)
ffffffffffe06259:	48 8b 45 98          	mov    -0x68(%rbp),%rax
ffffffffffe0625d:	48 8b 55 f0          	mov    -0x10(%rbp),%rdx
ffffffffffe06261:	48 89 90 90 01 00 00 	mov    %rdx,0x190(%rax)
ffffffffffe06268:	48 8b 45 98          	mov    -0x68(%rbp),%rax
ffffffffffe0626c:	48 8b 40 08          	mov    0x8(%rax),%rax
ffffffffffe06270:	c9                   	leaveq 
ffffffffffe06271:	c3                   	retq   

ffffffffffe06272 <find_thread>:
ffffffffffe06272:	55                   	push   %rbp
ffffffffffe06273:	48 89 e5             	mov    %rsp,%rbp
ffffffffffe06276:	48 83 ec 18          	sub    $0x18,%rsp
ffffffffffe0627a:	48 89 7d e8          	mov    %rdi,-0x18(%rbp)
ffffffffffe0627e:	48 8b 05 7b 38 00 00 	mov    0x387b(%rip),%rax        # ffffffffffe09b00 <lst>
ffffffffffe06285:	48 89 45 f8          	mov    %rax,-0x8(%rbp)
ffffffffffe06289:	eb 23                	jmp    ffffffffffe062ae <find_thread+0x3c>
ffffffffffe0628b:	48 8b 45 f8          	mov    -0x8(%rbp),%rax
ffffffffffe0628f:	48 8b 40 08          	mov    0x8(%rax),%rax
ffffffffffe06293:	48 39 45 e8          	cmp    %rax,-0x18(%rbp)
ffffffffffe06297:	75 06                	jne    ffffffffffe0629f <find_thread+0x2d>
ffffffffffe06299:	48 8b 45 f8          	mov    -0x8(%rbp),%rax
ffffffffffe0629d:	eb 1b                	jmp    ffffffffffe062ba <find_thread+0x48>
ffffffffffe0629f:	48 8b 45 f8          	mov    -0x8(%rbp),%rax
ffffffffffe062a3:	48 8b 80 18 01 00 00 	mov    0x118(%rax),%rax
ffffffffffe062aa:	48 89 45 f8          	mov    %rax,-0x8(%rbp)
ffffffffffe062ae:	48 83 7d f8 00       	cmpq   $0x0,-0x8(%rbp)
ffffffffffe062b3:	75 d6                	jne    ffffffffffe0628b <find_thread+0x19>
ffffffffffe062b5:	b8 00 00 00 00       	mov    $0x0,%eax
ffffffffffe062ba:	c9                   	leaveq 
ffffffffffe062bb:	c3                   	retq   

ffffffffffe062bc <exit_thread>:
ffffffffffe062bc:	55                   	push   %rbp
ffffffffffe062bd:	48 89 e5             	mov    %rsp,%rbp
ffffffffffe062c0:	41 55                	push   %r13
ffffffffffe062c2:	41 54                	push   %r12
ffffffffffe062c4:	53                   	push   %rbx
ffffffffffe062c5:	48 83 ec 08          	sub    $0x8,%rsp
ffffffffffe062c9:	48 8b 05 28 38 00 00 	mov    0x3828(%rip),%rax        # ffffffffffe09af8 <current_thread>
ffffffffffe062d0:	48 85 c0             	test   %rax,%rax
ffffffffffe062d3:	74 50                	je     ffffffffffe06325 <exit_thread+0x69>
ffffffffffe062d5:	48 8b 05 1c 38 00 00 	mov    0x381c(%rip),%rax        # ffffffffffe09af8 <current_thread>
ffffffffffe062dc:	4c 8d a8 98 00 00 00 	lea    0x98(%rax),%r13
ffffffffffe062e3:	48 8b 05 0e 38 00 00 	mov    0x380e(%rip),%rax        # ffffffffffe09af8 <current_thread>
ffffffffffe062ea:	4c 8d 60 18          	lea    0x18(%rax),%r12
ffffffffffe062ee:	48 8b 05 03 38 00 00 	mov    0x3803(%rip),%rax        # ffffffffffe09af8 <current_thread>
ffffffffffe062f5:	48 8b 58 08          	mov    0x8(%rax),%rbx
ffffffffffe062f9:	b8 00 00 00 00       	mov    $0x0,%eax
ffffffffffe062fe:	e8 8e c1 ff ff       	callq  ffffffffffe02491 <current_time>
ffffffffffe06303:	4d 89 e8             	mov    %r13,%r8
ffffffffffe06306:	4c 89 e1             	mov    %r12,%rcx
ffffffffffe06309:	48 89 da             	mov    %rbx,%rdx
ffffffffffe0630c:	48 89 c6             	mov    %rax,%rsi
ffffffffffe0630f:	48 8d 05 f8 0c 00 00 	lea    0xcf8(%rip),%rax        # ffffffffffe0700e <block_size+0x3ee>
ffffffffffe06316:	48 89 c7             	mov    %rax,%rdi
ffffffffffe06319:	b8 00 00 00 00       	mov    $0x0,%eax
ffffffffffe0631e:	e8 9e ca ff ff       	callq  ffffffffffe02dc1 <printf>
ffffffffffe06323:	eb 01                	jmp    ffffffffffe06326 <exit_thread+0x6a>
ffffffffffe06325:	90                   	nop
ffffffffffe06326:	48 8d 05 fa 0c 00 00 	lea    0xcfa(%rip),%rax        # ffffffffffe07027 <block_size+0x407>
ffffffffffe0632d:	48 89 c7             	mov    %rax,%rdi
ffffffffffe06330:	b8 00 00 00 00       	mov    $0x0,%eax
ffffffffffe06335:	e8 87 ca ff ff       	callq  ffffffffffe02dc1 <printf>
ffffffffffe0633a:	48 8b 05 b7 37 00 00 	mov    0x37b7(%rip),%rax        # ffffffffffe09af8 <current_thread>
ffffffffffe06341:	48 05 50 01 00 00    	add    $0x150,%rax
ffffffffffe06347:	48 89 c7             	mov    %rax,%rdi
ffffffffffe0634a:	e8 01 ef ff ff       	callq  ffffffffffe05250 <task_ended>
ffffffffffe0634f:	48 8b 05 a2 37 00 00 	mov    0x37a2(%rip),%rax        # ffffffffffe09af8 <current_thread>
ffffffffffe06356:	48 05 70 01 00 00    	add    $0x170,%rax
ffffffffffe0635c:	48 89 c7             	mov    %rax,%rdi
ffffffffffe0635f:	e8 59 f5 ff ff       	callq  ffffffffffe058bd <wake_all>
ffffffffffe06364:	48 8b 05 8d 37 00 00 	mov    0x378d(%rip),%rax        # ffffffffffe09af8 <current_thread>
ffffffffffe0636b:	48 8b 80 18 01 00 00 	mov    0x118(%rax),%rax
ffffffffffe06372:	48 85 c0             	test   %rax,%rax
ffffffffffe06375:	74 23                	je     ffffffffffe0639a <exit_thread+0xde>
ffffffffffe06377:	48 8b 15 7a 37 00 00 	mov    0x377a(%rip),%rdx        # ffffffffffe09af8 <current_thread>
ffffffffffe0637e:	48 8b 05 73 37 00 00 	mov    0x3773(%rip),%rax        # ffffffffffe09af8 <current_thread>
ffffffffffe06385:	48 8b 80 18 01 00 00 	mov    0x118(%rax),%rax
ffffffffffe0638c:	48 8b 92 20 01 00 00 	mov    0x120(%rdx),%rdx
ffffffffffe06393:	48 89 90 20 01 00 00 	mov    %rdx,0x120(%rax)
ffffffffffe0639a:	48 8b 05 57 37 00 00 	mov    0x3757(%rip),%rax        # ffffffffffe09af8 <current_thread>
ffffffffffe063a1:	48 8b 80 20 01 00 00 	mov    0x120(%rax),%rax
ffffffffffe063a8:	48 85 c0             	test   %rax,%rax
ffffffffffe063ab:	74 23                	je     ffffffffffe063d0 <exit_thread+0x114>
ffffffffffe063ad:	48 8b 15 44 37 00 00 	mov    0x3744(%rip),%rdx        # ffffffffffe09af8 <current_thread>
ffffffffffe063b4:	48 8b 05 3d 37 00 00 	mov    0x373d(%rip),%rax        # ffffffffffe09af8 <current_thread>
ffffffffffe063bb:	48 8b 80 20 01 00 00 	mov    0x120(%rax),%rax
ffffffffffe063c2:	48 8b 92 18 01 00 00 	mov    0x118(%rdx),%rdx
ffffffffffe063c9:	48 89 90 18 01 00 00 	mov    %rdx,0x118(%rax)
ffffffffffe063d0:	48 8b 15 29 37 00 00 	mov    0x3729(%rip),%rdx        # ffffffffffe09b00 <lst>
ffffffffffe063d7:	48 8b 05 1a 37 00 00 	mov    0x371a(%rip),%rax        # ffffffffffe09af8 <current_thread>
ffffffffffe063de:	48 39 c2             	cmp    %rax,%rdx
ffffffffffe063e1:	75 15                	jne    ffffffffffe063f8 <exit_thread+0x13c>
ffffffffffe063e3:	48 8b 05 0e 37 00 00 	mov    0x370e(%rip),%rax        # ffffffffffe09af8 <current_thread>
ffffffffffe063ea:	48 8b 80 18 01 00 00 	mov    0x118(%rax),%rax
ffffffffffe063f1:	48 89 05 08 37 00 00 	mov    %rax,0x3708(%rip)        # ffffffffffe09b00 <lst>
ffffffffffe063f8:	48 8b 05 f9 36 00 00 	mov    0x36f9(%rip),%rax        # ffffffffffe09af8 <current_thread>
ffffffffffe063ff:	c7 80 2c 01 00 00 01 	movl   $0x1,0x12c(%rax)
ffffffffffe06406:	00 00 00 
ffffffffffe06409:	bf 00 00 00 00       	mov    $0x0,%edi
ffffffffffe0640e:	e8 cb f6 ff ff       	callq  ffffffffffe05ade <schedule_now>
ffffffffffe06413:	90                   	nop
ffffffffffe06414:	48 83 c4 08          	add    $0x8,%rsp
ffffffffffe06418:	5b                   	pop    %rbx
ffffffffffe06419:	41 5c                	pop    %r12
ffffffffffe0641b:	41 5d                	pop    %r13
ffffffffffe0641d:	5d                   	pop    %rbp
ffffffffffe0641e:	c3                   	retq   

ffffffffffe0641f <timers_schedule_timer_interrupt>:
ffffffffffe0641f:	55                   	push   %rbp
ffffffffffe06420:	48 89 e5             	mov    %rsp,%rbp
ffffffffffe06423:	48 83 ec 10          	sub    $0x10,%rsp
ffffffffffe06427:	48 c7 45 f8 00 00 00 	movq   $0x0,-0x8(%rbp)
ffffffffffe0642e:	00 
ffffffffffe0642f:	48 8b 05 da 36 00 00 	mov    0x36da(%rip),%rax        # ffffffffffe09b10 <sleeping_threads>
ffffffffffe06436:	48 85 c0             	test   %rax,%rax
ffffffffffe06439:	74 12                	je     ffffffffffe0644d <timers_schedule_timer_interrupt+0x2e>
ffffffffffe0643b:	48 8b 05 ce 36 00 00 	mov    0x36ce(%rip),%rax        # ffffffffffe09b10 <sleeping_threads>
ffffffffffe06442:	48 8b 80 a0 01 00 00 	mov    0x1a0(%rax),%rax
ffffffffffe06449:	48 89 45 f8          	mov    %rax,-0x8(%rbp)
ffffffffffe0644d:	48 8b 05 b4 36 00 00 	mov    0x36b4(%rip),%rax        # ffffffffffe09b08 <timeslice_end>
ffffffffffe06454:	48 85 c0             	test   %rax,%rax
ffffffffffe06457:	74 1f                	je     ffffffffffe06478 <timers_schedule_timer_interrupt+0x59>
ffffffffffe06459:	48 83 7d f8 00       	cmpq   $0x0,-0x8(%rbp)
ffffffffffe0645e:	74 0d                	je     ffffffffffe0646d <timers_schedule_timer_interrupt+0x4e>
ffffffffffe06460:	48 8b 05 a1 36 00 00 	mov    0x36a1(%rip),%rax        # ffffffffffe09b08 <timeslice_end>
ffffffffffe06467:	48 39 45 f8          	cmp    %rax,-0x8(%rbp)
ffffffffffe0646b:	76 0b                	jbe    ffffffffffe06478 <timers_schedule_timer_interrupt+0x59>
ffffffffffe0646d:	48 8b 05 94 36 00 00 	mov    0x3694(%rip),%rax        # ffffffffffe09b08 <timeslice_end>
ffffffffffe06474:	48 89 45 f8          	mov    %rax,-0x8(%rbp)
ffffffffffe06478:	48 8b 45 f8          	mov    -0x8(%rbp),%rax
ffffffffffe0647c:	48 89 c7             	mov    %rax,%rdi
ffffffffffe0647f:	e8 da be ff ff       	callq  ffffffffffe0235e <schedule_apic_timer_interrupt>
ffffffffffe06484:	90                   	nop
ffffffffffe06485:	c9                   	leaveq 
ffffffffffe06486:	c3                   	retq   

ffffffffffe06487 <run_timers>:
ffffffffffe06487:	55                   	push   %rbp
ffffffffffe06488:	48 89 e5             	mov    %rsp,%rbp
ffffffffffe0648b:	53                   	push   %rbx
ffffffffffe0648c:	48 83 ec 18          	sub    $0x18,%rsp
ffffffffffe06490:	48 8b 05 71 36 00 00 	mov    0x3671(%rip),%rax        # ffffffffffe09b08 <timeslice_end>
ffffffffffe06497:	48 85 c0             	test   %rax,%rax
ffffffffffe0649a:	74 2b                	je     ffffffffffe064c7 <run_timers+0x40>
ffffffffffe0649c:	b8 00 00 00 00       	mov    $0x0,%eax
ffffffffffe064a1:	e8 eb bf ff ff       	callq  ffffffffffe02491 <current_time>
ffffffffffe064a6:	48 8b 15 5b 36 00 00 	mov    0x365b(%rip),%rdx        # ffffffffffe09b08 <timeslice_end>
ffffffffffe064ad:	48 39 d0             	cmp    %rdx,%rax
ffffffffffe064b0:	76 15                	jbe    ffffffffffe064c7 <run_timers+0x40>
ffffffffffe064b2:	b8 00 00 00 00       	mov    $0x0,%eax
ffffffffffe064b7:	e8 8e f5 ff ff       	callq  ffffffffffe05a4a <timeslice_expired>
ffffffffffe064bc:	48 c7 05 41 36 00 00 	movq   $0x0,0x3641(%rip)        # ffffffffffe09b08 <timeslice_end>
ffffffffffe064c3:	00 00 00 00 
ffffffffffe064c7:	48 8b 05 42 36 00 00 	mov    0x3642(%rip),%rax        # ffffffffffe09b10 <sleeping_threads>
ffffffffffe064ce:	48 89 45 e8          	mov    %rax,-0x18(%rbp)
ffffffffffe064d2:	48 83 7d e8 00       	cmpq   $0x0,-0x18(%rbp)
ffffffffffe064d7:	74 62                	je     ffffffffffe0653b <run_timers+0xb4>
ffffffffffe064d9:	48 8b 45 e8          	mov    -0x18(%rbp),%rax
ffffffffffe064dd:	48 8b 98 a0 01 00 00 	mov    0x1a0(%rax),%rbx
ffffffffffe064e4:	b8 00 00 00 00       	mov    $0x0,%eax
ffffffffffe064e9:	e8 a3 bf ff ff       	callq  ffffffffffe02491 <current_time>
ffffffffffe064ee:	48 83 c0 01          	add    $0x1,%rax
ffffffffffe064f2:	48 39 c3             	cmp    %rax,%rbx
ffffffffffe064f5:	77 47                	ja     ffffffffffe0653e <run_timers+0xb7>
ffffffffffe064f7:	48 8b 45 e8          	mov    -0x18(%rbp),%rax
ffffffffffe064fb:	48 8b 40 08          	mov    0x8(%rax),%rax
ffffffffffe064ff:	48 89 c6             	mov    %rax,%rsi
ffffffffffe06502:	48 8d 05 2e 0b 00 00 	lea    0xb2e(%rip),%rax        # ffffffffffe07037 <block_size+0x417>
ffffffffffe06509:	48 89 c7             	mov    %rax,%rdi
ffffffffffe0650c:	b8 00 00 00 00       	mov    $0x0,%eax
ffffffffffe06511:	e8 ab c8 ff ff       	callq  ffffffffffe02dc1 <printf>
ffffffffffe06516:	48 8b 45 e8          	mov    -0x18(%rbp),%rax
ffffffffffe0651a:	be 01 00 00 00       	mov    $0x1,%esi
ffffffffffe0651f:	48 89 c7             	mov    %rax,%rdi
ffffffffffe06522:	e8 fa f3 ff ff       	callq  ffffffffffe05921 <make_runnable>
ffffffffffe06527:	48 8b 45 e8          	mov    -0x18(%rbp),%rax
ffffffffffe0652b:	48 8b 80 98 01 00 00 	mov    0x198(%rax),%rax
ffffffffffe06532:	48 89 05 d7 35 00 00 	mov    %rax,0x35d7(%rip)        # ffffffffffe09b10 <sleeping_threads>
ffffffffffe06539:	eb 8c                	jmp    ffffffffffe064c7 <run_timers+0x40>
ffffffffffe0653b:	90                   	nop
ffffffffffe0653c:	eb 01                	jmp    ffffffffffe0653f <run_timers+0xb8>
ffffffffffe0653e:	90                   	nop
ffffffffffe0653f:	b8 00 00 00 00       	mov    $0x0,%eax
ffffffffffe06544:	e8 d6 fe ff ff       	callq  ffffffffffe0641f <timers_schedule_timer_interrupt>
ffffffffffe06549:	90                   	nop
ffffffffffe0654a:	48 8b 5d f8          	mov    -0x8(%rbp),%rbx
ffffffffffe0654e:	c9                   	leaveq 
ffffffffffe0654f:	c3                   	retq   

ffffffffffe06550 <sleep>:
ffffffffffe06550:	55                   	push   %rbp
ffffffffffe06551:	48 89 e5             	mov    %rsp,%rbp
ffffffffffe06554:	41 55                	push   %r13
ffffffffffe06556:	41 54                	push   %r12
ffffffffffe06558:	53                   	push   %rbx
ffffffffffe06559:	48 83 ec 28          	sub    $0x28,%rsp
ffffffffffe0655d:	48 89 7d c8          	mov    %rdi,-0x38(%rbp)
ffffffffffe06561:	b8 00 00 00 00       	mov    $0x0,%eax
ffffffffffe06566:	e8 26 bf ff ff       	callq  ffffffffffe02491 <current_time>
ffffffffffe0656b:	48 89 c2             	mov    %rax,%rdx
ffffffffffe0656e:	48 8b 05 83 35 00 00 	mov    0x3583(%rip),%rax        # ffffffffffe09af8 <current_thread>
ffffffffffe06575:	48 8b 4d c8          	mov    -0x38(%rbp),%rcx
ffffffffffe06579:	48 01 ca             	add    %rcx,%rdx
ffffffffffe0657c:	48 89 90 a0 01 00 00 	mov    %rdx,0x1a0(%rax)
ffffffffffe06583:	48 8b 05 6e 35 00 00 	mov    0x356e(%rip),%rax        # ffffffffffe09af8 <current_thread>
ffffffffffe0658a:	48 85 c0             	test   %rax,%rax
ffffffffffe0658d:	74 50                	je     ffffffffffe065df <sleep+0x8f>
ffffffffffe0658f:	48 8b 05 62 35 00 00 	mov    0x3562(%rip),%rax        # ffffffffffe09af8 <current_thread>
ffffffffffe06596:	4c 8d a8 98 00 00 00 	lea    0x98(%rax),%r13
ffffffffffe0659d:	48 8b 05 54 35 00 00 	mov    0x3554(%rip),%rax        # ffffffffffe09af8 <current_thread>
ffffffffffe065a4:	4c 8d 60 18          	lea    0x18(%rax),%r12
ffffffffffe065a8:	48 8b 05 49 35 00 00 	mov    0x3549(%rip),%rax        # ffffffffffe09af8 <current_thread>
ffffffffffe065af:	48 8b 58 08          	mov    0x8(%rax),%rbx
ffffffffffe065b3:	b8 00 00 00 00       	mov    $0x0,%eax
ffffffffffe065b8:	e8 d4 be ff ff       	callq  ffffffffffe02491 <current_time>
ffffffffffe065bd:	4d 89 e8             	mov    %r13,%r8
ffffffffffe065c0:	4c 89 e1             	mov    %r12,%rcx
ffffffffffe065c3:	48 89 da             	mov    %rbx,%rdx
ffffffffffe065c6:	48 89 c6             	mov    %rax,%rsi
ffffffffffe065c9:	48 8d 05 7f 0a 00 00 	lea    0xa7f(%rip),%rax        # ffffffffffe0704f <block_size+0x42f>
ffffffffffe065d0:	48 89 c7             	mov    %rax,%rdi
ffffffffffe065d3:	b8 00 00 00 00       	mov    $0x0,%eax
ffffffffffe065d8:	e8 e4 c7 ff ff       	callq  ffffffffffe02dc1 <printf>
ffffffffffe065dd:	eb 01                	jmp    ffffffffffe065e0 <sleep+0x90>
ffffffffffe065df:	90                   	nop
ffffffffffe065e0:	48 8b 05 11 35 00 00 	mov    0x3511(%rip),%rax        # ffffffffffe09af8 <current_thread>
ffffffffffe065e7:	48 8b 80 a0 01 00 00 	mov    0x1a0(%rax),%rax
ffffffffffe065ee:	48 89 c6             	mov    %rax,%rsi
ffffffffffe065f1:	48 8d 05 70 0a 00 00 	lea    0xa70(%rip),%rax        # ffffffffffe07068 <block_size+0x448>
ffffffffffe065f8:	48 89 c7             	mov    %rax,%rdi
ffffffffffe065fb:	b8 00 00 00 00       	mov    $0x0,%eax
ffffffffffe06600:	e8 bc c7 ff ff       	callq  ffffffffffe02dc1 <printf>
ffffffffffe06605:	48 8d 05 04 35 00 00 	lea    0x3504(%rip),%rax        # ffffffffffe09b10 <sleeping_threads>
ffffffffffe0660c:	48 89 45 d8          	mov    %rax,-0x28(%rbp)
ffffffffffe06610:	eb 11                	jmp    ffffffffffe06623 <sleep+0xd3>
ffffffffffe06612:	48 8b 45 d8          	mov    -0x28(%rbp),%rax
ffffffffffe06616:	48 8b 00             	mov    (%rax),%rax
ffffffffffe06619:	48 05 98 01 00 00    	add    $0x198,%rax
ffffffffffe0661f:	48 89 45 d8          	mov    %rax,-0x28(%rbp)
ffffffffffe06623:	48 8b 45 d8          	mov    -0x28(%rbp),%rax
ffffffffffe06627:	48 8b 00             	mov    (%rax),%rax
ffffffffffe0662a:	48 85 c0             	test   %rax,%rax
ffffffffffe0662d:	74 21                	je     ffffffffffe06650 <sleep+0x100>
ffffffffffe0662f:	48 8b 45 d8          	mov    -0x28(%rbp),%rax
ffffffffffe06633:	48 8b 00             	mov    (%rax),%rax
ffffffffffe06636:	48 8b 90 a0 01 00 00 	mov    0x1a0(%rax),%rdx
ffffffffffe0663d:	48 8b 05 b4 34 00 00 	mov    0x34b4(%rip),%rax        # ffffffffffe09af8 <current_thread>
ffffffffffe06644:	48 8b 80 a0 01 00 00 	mov    0x1a0(%rax),%rax
ffffffffffe0664b:	48 39 c2             	cmp    %rax,%rdx
ffffffffffe0664e:	72 c2                	jb     ffffffffffe06612 <sleep+0xc2>
ffffffffffe06650:	48 8b 05 a1 34 00 00 	mov    0x34a1(%rip),%rax        # ffffffffffe09af8 <current_thread>
ffffffffffe06657:	48 8b 55 d8          	mov    -0x28(%rbp),%rdx
ffffffffffe0665b:	48 8b 12             	mov    (%rdx),%rdx
ffffffffffe0665e:	48 89 90 98 01 00 00 	mov    %rdx,0x198(%rax)
ffffffffffe06665:	48 8b 15 8c 34 00 00 	mov    0x348c(%rip),%rdx        # ffffffffffe09af8 <current_thread>
ffffffffffe0666c:	48 8b 45 d8          	mov    -0x28(%rbp),%rax
ffffffffffe06670:	48 89 10             	mov    %rdx,(%rax)
ffffffffffe06673:	b8 00 00 00 00       	mov    $0x0,%eax
ffffffffffe06678:	e8 a2 fd ff ff       	callq  ffffffffffe0641f <timers_schedule_timer_interrupt>
ffffffffffe0667d:	bf 00 00 00 00       	mov    $0x0,%edi
ffffffffffe06682:	e8 57 f4 ff ff       	callq  ffffffffffe05ade <schedule_now>
ffffffffffe06687:	90                   	nop
ffffffffffe06688:	48 83 c4 28          	add    $0x28,%rsp
ffffffffffe0668c:	5b                   	pop    %rbx
ffffffffffe0668d:	41 5c                	pop    %r12
ffffffffffe0668f:	41 5d                	pop    %r13
ffffffffffe06691:	5d                   	pop    %rbp
ffffffffffe06692:	c3                   	retq   

ffffffffffe06693 <set_timeslice_len>:
ffffffffffe06693:	55                   	push   %rbp
ffffffffffe06694:	48 89 e5             	mov    %rsp,%rbp
ffffffffffe06697:	48 83 ec 10          	sub    $0x10,%rsp
ffffffffffe0669b:	48 89 7d f8          	mov    %rdi,-0x8(%rbp)
ffffffffffe0669f:	48 83 7d f8 00       	cmpq   $0x0,-0x8(%rbp)
ffffffffffe066a4:	75 0d                	jne    ffffffffffe066b3 <set_timeslice_len+0x20>
ffffffffffe066a6:	48 c7 05 57 34 00 00 	movq   $0x0,0x3457(%rip)        # ffffffffffe09b08 <timeslice_end>
ffffffffffe066ad:	00 00 00 00 
ffffffffffe066b1:	eb 18                	jmp    ffffffffffe066cb <set_timeslice_len+0x38>
ffffffffffe066b3:	b8 00 00 00 00       	mov    $0x0,%eax
ffffffffffe066b8:	e8 d4 bd ff ff       	callq  ffffffffffe02491 <current_time>
ffffffffffe066bd:	48 8b 55 f8          	mov    -0x8(%rbp),%rdx
ffffffffffe066c1:	48 01 d0             	add    %rdx,%rax
ffffffffffe066c4:	48 89 05 3d 34 00 00 	mov    %rax,0x343d(%rip)        # ffffffffffe09b08 <timeslice_end>
ffffffffffe066cb:	b8 00 00 00 00       	mov    $0x0,%eax
ffffffffffe066d0:	e8 4a fd ff ff       	callq  ffffffffffe0641f <timers_schedule_timer_interrupt>
ffffffffffe066d5:	90                   	nop
ffffffffffe066d6:	c9                   	leaveq 
ffffffffffe066d7:	c3                   	retq   
ffffffffffe066d8:	8f c8 ff ff          	(bad)  
ffffffffffe066dc:	d0 c8                	ror    %al
ffffffffffe066de:	ff                   	(bad)  
ffffffffffe066df:	ff d0                	callq  *%rax
ffffffffffe066e1:	c8 ff ff a1          	enterq $0xffff,$0xa1
ffffffffffe066e5:	c8 ff ff d0          	enterq $0xffff,$0xd0
ffffffffffe066e9:	c8 ff ff d0          	enterq $0xffff,$0xd0
ffffffffffe066ed:	c8 ff ff d0          	enterq $0xffff,$0xd0
ffffffffffe066f1:	c8 ff ff ad          	enterq $0xffff,$0xad
ffffffffffe066f5:	c8 ff ff d0          	enterq $0xffff,$0xd0
ffffffffffe066f9:	c8 ff ff d0          	enterq $0xffff,$0xd0
ffffffffffe066fd:	c8 ff ff d0          	enterq $0xffff,$0xd0
ffffffffffe06701:	c8 ff ff 86          	enterq $0xffff,$0x86
ffffffffffe06705:	c8 ff ff d0          	enterq $0xffff,$0xd0
ffffffffffe06709:	c8 ff ff 7a          	enterq $0xffff,$0x7a
ffffffffffe0670d:	c8 ff ff d0          	enterq $0xffff,$0xd0
ffffffffffe06711:	c8 ff ff d0          	enterq $0xffff,$0xd0
ffffffffffe06715:	c8 ff ff 98          	enterq $0xffff,$0x98
ffffffffffe06719:	c8 ff ff 22          	enterq $0xffff,$0x22
ffffffffffe0671d:	ca ff ff             	lret   $0xffff
ffffffffffe06720:	66 ca ff ff          	lretw  $0xffff
ffffffffffe06724:	46 ca ff ff          	rex.RX lret $0xffff
ffffffffffe06728:	66 ca ff ff          	lretw  $0xffff
ffffffffffe0672c:	34 ca                	xor    $0xca,%al
ffffffffffe0672e:	ff                   	(bad)  
ffffffffffe0672f:	ff 66 ca             	jmpq   *-0x36(%rsi)
ffffffffffe06732:	ff                   	(bad)  
ffffffffffe06733:	ff 66 ca             	jmpq   *-0x36(%rsi)
ffffffffffe06736:	ff                   	(bad)  
ffffffffffe06737:	ff 66 ca             	jmpq   *-0x36(%rsi)
ffffffffffe0673a:	ff                   	(bad)  
ffffffffffe0673b:	ff 66 ca             	jmpq   *-0x36(%rsi)
ffffffffffe0673e:	ff                   	(bad)  
ffffffffffe0673f:	ff 66 ca             	jmpq   *-0x36(%rsi)
ffffffffffe06742:	ff                   	(bad)  
ffffffffffe06743:	ff 66 ca             	jmpq   *-0x36(%rsi)
ffffffffffe06746:	ff                   	(bad)  
ffffffffffe06747:	ff 66 ca             	jmpq   *-0x36(%rsi)
ffffffffffe0674a:	ff                   	(bad)  
ffffffffffe0674b:	ff 46 ca             	incl   -0x36(%rsi)
ffffffffffe0674e:	ff                   	(bad)  
ffffffffffe0674f:	ff 66 ca             	jmpq   *-0x36(%rsi)
ffffffffffe06752:	ff                   	(bad)  
ffffffffffe06753:	ff 66 ca             	jmpq   *-0x36(%rsi)
ffffffffffe06756:	ff                   	(bad)  
ffffffffffe06757:	ff 66 ca             	jmpq   *-0x36(%rsi)
ffffffffffe0675a:	ff                   	(bad)  
ffffffffffe0675b:	ff 66 ca             	jmpq   *-0x36(%rsi)
ffffffffffe0675e:	ff                   	(bad)  
ffffffffffe0675f:	ff 66 ca             	jmpq   *-0x36(%rsi)
ffffffffffe06762:	ff                   	(bad)  
ffffffffffe06763:	ff 46 ca             	incl   -0x36(%rsi)
ffffffffffe06766:	ff                   	(bad)  
ffffffffffe06767:	ff 71 d1             	pushq  -0x2f(%rcx)
ffffffffffe0676a:	ff                   	(bad)  
ffffffffffe0676b:	ff                   	(bad)  
ffffffffffe0676c:	bb d3 ff ff bb       	mov    $0xbbffffd3,%ebx
ffffffffffe06771:	d3 ff                	sar    %cl,%edi
ffffffffffe06773:	ff                   	(bad)  
ffffffffffe06774:	bb d3 ff ff bb       	mov    $0xbbffffd3,%ebx
ffffffffffe06779:	d3 ff                	sar    %cl,%edi
ffffffffffe0677b:	ff                   	(bad)  
ffffffffffe0677c:	bb d3 ff ff bb       	mov    $0xbbffffd3,%ebx
ffffffffffe06781:	d3 ff                	sar    %cl,%edi
ffffffffffe06783:	ff                   	(bad)  
ffffffffffe06784:	bb d3 ff ff bb       	mov    $0xbbffffd3,%ebx
ffffffffffe06789:	d3 ff                	sar    %cl,%edi
ffffffffffe0678b:	ff                   	(bad)  
ffffffffffe0678c:	bb d3 ff ff bb       	mov    $0xbbffffd3,%ebx
ffffffffffe06791:	d3 ff                	sar    %cl,%edi
ffffffffffe06793:	ff                   	(bad)  
ffffffffffe06794:	bb d3 ff ff 30       	mov    $0x30ffffd3,%ebx
ffffffffffe06799:	d0 ff                	sar    %bh
ffffffffffe0679b:	ff                   	(bad)  
ffffffffffe0679c:	bb d3 ff ff bb       	mov    $0xbbffffd3,%ebx
ffffffffffe067a1:	d3 ff                	sar    %cl,%edi
ffffffffffe067a3:	ff                   	(bad)  
ffffffffffe067a4:	bb d3 ff ff bb       	mov    $0xbbffffd3,%ebx
ffffffffffe067a9:	d3 ff                	sar    %cl,%edi
ffffffffffe067ab:	ff 30                	pushq  (%rax)
ffffffffffe067ad:	d0 ff                	sar    %bh
ffffffffffe067af:	ff                   	(bad)  
ffffffffffe067b0:	bb d3 ff ff bb       	mov    $0xbbffffd3,%ebx
ffffffffffe067b5:	d3 ff                	sar    %cl,%edi
ffffffffffe067b7:	ff                   	(bad)  
ffffffffffe067b8:	bb d3 ff ff bb       	mov    $0xbbffffd3,%ebx
ffffffffffe067bd:	d3 ff                	sar    %cl,%edi
ffffffffffe067bf:	ff                   	(bad)  
ffffffffffe067c0:	bb d3 ff ff 0a       	mov    $0xaffffd3,%ebx
ffffffffffe067c5:	d2 ff                	sar    %cl,%bh
ffffffffffe067c7:	ff 8e d2 ff ff bb    	decl   -0x4400002e(%rsi)
ffffffffffe067cd:	d3 ff                	sar    %cl,%edi
ffffffffffe067cf:	ff                   	(bad)  
ffffffffffe067d0:	bb d3 ff ff bb       	mov    $0xbbffffd3,%ebx
ffffffffffe067d5:	d3 ff                	sar    %cl,%edi
ffffffffffe067d7:	ff                   	(bad)  
ffffffffffe067d8:	bb d3 ff ff 84       	mov    $0x84ffffd3,%ebx
ffffffffffe067dd:	d0 ff                	sar    %bh
ffffffffffe067df:	ff                   	(bad)  
ffffffffffe067e0:	bb d3 ff ff bb       	mov    $0xbbffffd3,%ebx
ffffffffffe067e5:	d3 ff                	sar    %cl,%edi
ffffffffffe067e7:	ff                   	(bad)  
ffffffffffe067e8:	d8 d0                	fcom   %st(0)
ffffffffffe067ea:	ff                   	(bad)  
ffffffffffe067eb:	ff 25 73 3a 20 00    	jmpq   *0x203a73(%rip)        # a264 <_binary_font_psf_size+0x9a44>
ffffffffffe067f1:	31 00                	xor    %eax,(%rax)
ffffffffffe067f3:	30 00                	xor    %al,(%rax)
ffffffffffe067f5:	20 00                	and    %al,(%rax)
ffffffffffe067f7:	5f                   	pop    %rdi
ffffffffffe067f8:	00 0a                	add    %cl,(%rdx)
ffffffffffe067fa:	00 2d 2d 2d 20 25    	add    %ch,0x25202d2d(%rip)        # 2500952d <_binary_font_psf_size+0x25008d0d>
ffffffffffe06800:	73 20                	jae    ffffffffffe06822 <set_timeslice_len+0x18f>
ffffffffffe06802:	2d 2d 2d 0a 00       	sub    $0xa2d2d,%eax
ffffffffffe06807:	25 23 30 31 30       	and    $0x30313023,%eax
ffffffffffe0680c:	6c                   	insb   (%dx),%es:(%rdi)
ffffffffffe0680d:	78 3a                	js     ffffffffffe06849 <set_timeslice_len+0x1b6>
ffffffffffe0680f:	20 00                	and    %al,(%rax)
ffffffffffe06811:	25 30 32 68 68       	and    $0x68683230,%eax
ffffffffffe06816:	78 00                	js     ffffffffffe06818 <set_timeslice_len+0x185>
ffffffffffe06818:	2d 25 32 6c 78       	sub    $0x786c3225,%eax
ffffffffffe0681d:	28 25 25 25 73 29    	sub    %ah,0x29732525(%rip)        # 29538d48 <_binary_font_psf_size+0x29538528>
ffffffffffe06823:	20 00                	and    %al,(%rax)
ffffffffffe06825:	20 20                	and    %ah,(%rax)
ffffffffffe06827:	20 28                	and    %ch,(%rax)
ffffffffffe06829:	25 25 25 73 29       	and    $0x29732525,%eax
ffffffffffe0682e:	20 00                	and    %al,(%rax)
ffffffffffe06830:	20 25 32 6c 78 28    	and    %ah,0x28786c32(%rip)        # 2858d468 <_binary_font_psf_size+0x2858cc48>
ffffffffffe06836:	25 25 25 73 29       	and    $0x29732525,%eax
ffffffffffe0683b:	20 00                	and    %al,(%rax)
ffffffffffe0683d:	20 3d 3d 3d 3d 3d    	and    %bh,0x3d3d3d3d(%rip)        # 3d1da580 <_binary_font_psf_size+0x3d1d9d60>
ffffffffffe06843:	20 5b 20             	and    %bl,0x20(%rbx)
ffffffffffe06846:	53                   	push   %rbx
ffffffffffe06847:	54                   	push   %rsp
ffffffffffe06848:	41                   	rex.B
ffffffffffe06849:	43                   	rex.XB
ffffffffffe0684a:	4b 20 5d 20          	rex.WXB and %bl,0x20(%r13)
ffffffffffe0684e:	3d 3d 3d 3d 3d       	cmp    $0x3d3d3d3d,%eax
ffffffffffe06853:	20 0a                	and    %cl,(%rdx)
ffffffffffe06855:	00 25 70 20 00 72    	add    %ah,0x72002070(%rip)        # 71e088cb <_binary_font_psf_size+0x71e080ab>
ffffffffffe0685b:	62                   	(bad)  
ffffffffffe0685c:	70 00                	jo     ffffffffffe0685e <set_timeslice_len+0x1cb>
ffffffffffe0685e:	72 73                	jb     ffffffffffe068d3 <set_timeslice_len+0x240>
ffffffffffe06860:	70 00                	jo     ffffffffffe06862 <set_timeslice_len+0x1cf>
ffffffffffe06862:	2d 2d 2d 20 25       	sub    $0x25202d2d,%eax
ffffffffffe06867:	6c                   	insb   (%dx),%es:(%rdi)
ffffffffffe06868:	78 0a                	js     ffffffffffe06874 <set_timeslice_len+0x1e1>
ffffffffffe0686a:	00 20                	add    %ah,(%rax)
ffffffffffe0686c:	20 20                	and    %ah,(%rax)
ffffffffffe0686e:	20 25 6c 78 0a 00    	and    %ah,0xa786c(%rip)        # ffffffffffeae0e0 <sleeping_threads+0xa45d0>
ffffffffffe06874:	2a 2a                	sub    (%rdx),%ch
ffffffffffe06876:	2a 20                	sub    (%rax),%ah
ffffffffffe06878:	25 6c 78 0a 00       	and    $0xa786c,%eax
ffffffffffe0687d:	20 3d 3d 3d 3d 3d    	and    %bh,0x3d3d3d3d(%rip)        # 3d1da5c0 <_binary_font_psf_size+0x3d1d9da0>
ffffffffffe06883:	20 5b 20             	and    %bl,0x20(%rbx)
ffffffffffe06886:	25 73 20 5d 20       	and    $0x205d2073,%eax
ffffffffffe0688b:	3d 3d 3d 3d 3d       	cmp    $0x3d3d3d3d,%eax
ffffffffffe06890:	20 0a                	and    %cl,(%rdx)
ffffffffffe06892:	00 72 61             	add    %dh,0x61(%rdx)
ffffffffffe06895:	78 3a                	js     ffffffffffe068d1 <set_timeslice_len+0x23e>
ffffffffffe06897:	20 25 23 31 38 6c    	and    %ah,0x6c383123(%rip)        # 6c1899c0 <_binary_font_psf_size+0x6c1891a0>
ffffffffffe0689d:	78 20                	js     ffffffffffe068bf <set_timeslice_len+0x22c>
ffffffffffe0689f:	20 00                	and    %al,(%rax)
ffffffffffe068a1:	72 62                	jb     ffffffffffe06905 <set_timeslice_len+0x272>
ffffffffffe068a3:	78 3a                	js     ffffffffffe068df <set_timeslice_len+0x24c>
ffffffffffe068a5:	20 25 23 31 38 6c    	and    %ah,0x6c383123(%rip)        # 6c1899ce <_binary_font_psf_size+0x6c1891ae>
ffffffffffe068ab:	78 20                	js     ffffffffffe068cd <set_timeslice_len+0x23a>
ffffffffffe068ad:	20 00                	and    %al,(%rax)
ffffffffffe068af:	72 63                	jb     ffffffffffe06914 <set_timeslice_len+0x281>
ffffffffffe068b1:	78 3a                	js     ffffffffffe068ed <set_timeslice_len+0x25a>
ffffffffffe068b3:	20 25 23 31 38 6c    	and    %ah,0x6c383123(%rip)        # 6c1899dc <_binary_font_psf_size+0x6c1891bc>
ffffffffffe068b9:	78 20                	js     ffffffffffe068db <set_timeslice_len+0x248>
ffffffffffe068bb:	20 00                	and    %al,(%rax)
ffffffffffe068bd:	72 64                	jb     ffffffffffe06923 <set_timeslice_len+0x290>
ffffffffffe068bf:	78 3a                	js     ffffffffffe068fb <set_timeslice_len+0x268>
ffffffffffe068c1:	20 25 23 31 38 6c    	and    %ah,0x6c383123(%rip)        # 6c1899ea <_binary_font_psf_size+0x6c1891ca>
ffffffffffe068c7:	78 0a                	js     ffffffffffe068d3 <set_timeslice_len+0x240>
ffffffffffe068c9:	00 72 73             	add    %dh,0x73(%rdx)
ffffffffffe068cc:	69 3a 20 25 23 31    	imul   $0x31232520,(%rdx),%edi
ffffffffffe068d2:	38 6c 78 20          	cmp    %ch,0x20(%rax,%rdi,2)
ffffffffffe068d6:	20 00                	and    %al,(%rax)
ffffffffffe068d8:	72 64                	jb     ffffffffffe0693e <set_timeslice_len+0x2ab>
ffffffffffe068da:	69 3a 20 25 23 31    	imul   $0x31232520,(%rdx),%edi
ffffffffffe068e0:	38 6c 78 20          	cmp    %ch,0x20(%rax,%rdi,2)
ffffffffffe068e4:	20 00                	and    %al,(%rax)
ffffffffffe068e6:	72 62                	jb     ffffffffffe0694a <set_timeslice_len+0x2b7>
ffffffffffe068e8:	70 3a                	jo     ffffffffffe06924 <set_timeslice_len+0x291>
ffffffffffe068ea:	20 25 23 31 38 6c    	and    %ah,0x6c383123(%rip)        # 6c189a13 <_binary_font_psf_size+0x6c1891f3>
ffffffffffe068f0:	78 20                	js     ffffffffffe06912 <set_timeslice_len+0x27f>
ffffffffffe068f2:	20 00                	and    %al,(%rax)
ffffffffffe068f4:	72 73                	jb     ffffffffffe06969 <set_timeslice_len+0x2d6>
ffffffffffe068f6:	70 3a                	jo     ffffffffffe06932 <set_timeslice_len+0x29f>
ffffffffffe068f8:	20 25 23 31 38 6c    	and    %ah,0x6c383123(%rip)        # 6c189a21 <_binary_font_psf_size+0x6c189201>
ffffffffffe068fe:	78 0a                	js     ffffffffffe0690a <set_timeslice_len+0x277>
ffffffffffe06900:	00 20                	add    %ah,(%rax)
ffffffffffe06902:	72 38                	jb     ffffffffffe0693c <set_timeslice_len+0x2a9>
ffffffffffe06904:	3a 20                	cmp    (%rax),%ah
ffffffffffe06906:	25 23 31 38 6c       	and    $0x6c383123,%eax
ffffffffffe0690b:	78 20                	js     ffffffffffe0692d <set_timeslice_len+0x29a>
ffffffffffe0690d:	20 00                	and    %al,(%rax)
ffffffffffe0690f:	20 72 39             	and    %dh,0x39(%rdx)
ffffffffffe06912:	3a 20                	cmp    (%rax),%ah
ffffffffffe06914:	25 23 31 38 6c       	and    $0x6c383123,%eax
ffffffffffe06919:	78 20                	js     ffffffffffe0693b <set_timeslice_len+0x2a8>
ffffffffffe0691b:	20 00                	and    %al,(%rax)
ffffffffffe0691d:	72 31                	jb     ffffffffffe06950 <set_timeslice_len+0x2bd>
ffffffffffe0691f:	30 3a                	xor    %bh,(%rdx)
ffffffffffe06921:	20 25 23 31 38 6c    	and    %ah,0x6c383123(%rip)        # 6c189a4a <_binary_font_psf_size+0x6c18922a>
ffffffffffe06927:	78 20                	js     ffffffffffe06949 <set_timeslice_len+0x2b6>
ffffffffffe06929:	20 00                	and    %al,(%rax)
ffffffffffe0692b:	72 31                	jb     ffffffffffe0695e <set_timeslice_len+0x2cb>
ffffffffffe0692d:	31 3a                	xor    %edi,(%rdx)
ffffffffffe0692f:	20 25 23 31 38 6c    	and    %ah,0x6c383123(%rip)        # 6c189a58 <_binary_font_psf_size+0x6c189238>
ffffffffffe06935:	78 0a                	js     ffffffffffe06941 <set_timeslice_len+0x2ae>
ffffffffffe06937:	00 72 31             	add    %dh,0x31(%rdx)
ffffffffffe0693a:	32 3a                	xor    (%rdx),%bh
ffffffffffe0693c:	20 25 23 31 38 6c    	and    %ah,0x6c383123(%rip)        # 6c189a65 <_binary_font_psf_size+0x6c189245>
ffffffffffe06942:	78 20                	js     ffffffffffe06964 <set_timeslice_len+0x2d1>
ffffffffffe06944:	20 00                	and    %al,(%rax)
ffffffffffe06946:	72 31                	jb     ffffffffffe06979 <set_timeslice_len+0x2e6>
ffffffffffe06948:	33 3a                	xor    (%rdx),%edi
ffffffffffe0694a:	20 25 23 31 38 6c    	and    %ah,0x6c383123(%rip)        # 6c189a73 <_binary_font_psf_size+0x6c189253>
ffffffffffe06950:	78 20                	js     ffffffffffe06972 <set_timeslice_len+0x2df>
ffffffffffe06952:	20 00                	and    %al,(%rax)
ffffffffffe06954:	72 31                	jb     ffffffffffe06987 <set_timeslice_len+0x2f4>
ffffffffffe06956:	34 3a                	xor    $0x3a,%al
ffffffffffe06958:	20 25 23 31 38 6c    	and    %ah,0x6c383123(%rip)        # 6c189a81 <_binary_font_psf_size+0x6c189261>
ffffffffffe0695e:	78 20                	js     ffffffffffe06980 <set_timeslice_len+0x2ed>
ffffffffffe06960:	20 00                	and    %al,(%rax)
ffffffffffe06962:	72 31                	jb     ffffffffffe06995 <set_timeslice_len+0x302>
ffffffffffe06964:	35 3a 20 25 23       	xor    $0x2325203a,%eax
ffffffffffe06969:	31 38                	xor    %edi,(%rax)
ffffffffffe0696b:	6c                   	insb   (%dx),%es:(%rdi)
ffffffffffe0696c:	78 0a                	js     ffffffffffe06978 <set_timeslice_len+0x2e5>
ffffffffffe0696e:	00 52 49             	add    %dl,0x49(%rdx)
ffffffffffe06971:	50                   	push   %rax
ffffffffffe06972:	3a 20                	cmp    (%rax),%ah
ffffffffffe06974:	25 23 31 38 6c       	and    $0x6c383123,%eax
ffffffffffe06979:	78 20                	js     ffffffffffe0699b <set_timeslice_len+0x308>
ffffffffffe0697b:	20 00                	and    %al,(%rax)
ffffffffffe0697d:	45 52                	rex.RB push %r10
ffffffffffe0697f:	52                   	push   %rdx
ffffffffffe06980:	3a 20                	cmp    (%rax),%ah
ffffffffffe06982:	25 23 31 38 6c       	and    $0x6c383123,%eax
ffffffffffe06987:	78 20                	js     ffffffffffe069a9 <set_timeslice_len+0x316>
ffffffffffe06989:	20 00                	and    %al,(%rax)
ffffffffffe0698b:	43 52                	rex.XB push %r10
ffffffffffe0698d:	32 3a                	xor    (%rdx),%bh
ffffffffffe0698f:	20 25 23 31 38 6c    	and    %ah,0x6c383123(%rip)        # 6c189ab8 <_binary_font_psf_size+0x6c189298>
ffffffffffe06995:	78 0a                	js     ffffffffffe069a1 <set_timeslice_len+0x30e>
ffffffffffe06997:	00 20                	add    %ah,(%rax)
ffffffffffe06999:	20 20                	and    %ah,(%rax)
ffffffffffe0699b:	20 63 73             	and    %ah,0x73(%rbx)
ffffffffffe0699e:	3a 20                	cmp    (%rax),%ah
ffffffffffe069a0:	25 23 6c 78 20       	and    $0x20786c23,%eax
ffffffffffe069a5:	00 20                	add    %ah,(%rax)
ffffffffffe069a7:	20 20                	and    %ah,(%rax)
ffffffffffe069a9:	20 73 73             	and    %dh,0x73(%rbx)
ffffffffffe069ac:	3a 20                	cmp    (%rax),%ah
ffffffffffe069ae:	25 23 6c 78 0a       	and    $0xa786c23,%eax
ffffffffffe069b3:	00 0f                	add    %cl,(%rdi)
ffffffffffe069b5:	1f                   	(bad)  
ffffffffffe069b6:	40 00 0a             	add    %cl,(%rdx)
ffffffffffe069b9:	23 23                	and    (%rbx),%esp
ffffffffffe069bb:	23 20                	and    (%rax),%esp
ffffffffffe069bd:	45 52                	rex.RB push %r10
ffffffffffe069bf:	52                   	push   %rdx
ffffffffffe069c0:	4f 52                	rex.WRXB push %r10
ffffffffffe069c2:	3a 20                	cmp    (%rax),%ah
ffffffffffe069c4:	43 6f                	rex.XB outsl %ds:(%rsi),(%dx)
ffffffffffe069c6:	75 6c                	jne    ffffffffffe06a34 <set_timeslice_len+0x3a1>
ffffffffffe069c8:	64 20 6e 6f          	and    %ch,%fs:0x6f(%rsi)
ffffffffffe069cc:	74 20                	je     ffffffffffe069ee <set_timeslice_len+0x35b>
ffffffffffe069ce:	6c                   	insb   (%dx),%es:(%rdi)
ffffffffffe069cf:	6f                   	outsl  %ds:(%rsi),(%dx)
ffffffffffe069d0:	61                   	(bad)  
ffffffffffe069d1:	64 20 65 6c          	and    %ah,%fs:0x6c(%rbp)
ffffffffffe069d5:	66 20 66 69          	data16 and %ah,0x69(%rsi)
ffffffffffe069d9:	6c                   	insb   (%dx),%es:(%rdi)
ffffffffffe069da:	65 3a 20             	cmp    %gs:(%rax),%ah
ffffffffffe069dd:	25 73 20 23 23       	and    $0x23232073,%eax
ffffffffffe069e2:	23 0a                	and    (%rdx),%ecx
ffffffffffe069e4:	00 00                	add    %al,(%rax)
ffffffffffe069e6:	00 00                	add    %al,(%rax)
ffffffffffe069e8:	0a 43 72             	or     0x72(%rbx),%al
ffffffffffe069eb:	61                   	(bad)  
ffffffffffe069ec:	73 68                	jae    ffffffffffe06a56 <set_timeslice_len+0x3c3>
ffffffffffe069ee:	65 64 2e 20 55 73    	gs fs and %dl,%cs:0x73(%rbp)
ffffffffffe069f4:	65 20 43 74          	and    %al,%gs:0x74(%rbx)
ffffffffffe069f8:	72 6c                	jb     ffffffffffe06a66 <set_timeslice_len+0x3d3>
ffffffffffe069fa:	2d 43 20 6f 72       	sub    $0x726f2043,%eax
ffffffffffe069ff:	20 22                	and    %ah,(%rdx)
ffffffffffe06a01:	43 74 72             	rex.XB je ffffffffffe06a76 <set_timeslice_len+0x3e3>
ffffffffffe06a04:	6c                   	insb   (%dx),%es:(%rdi)
ffffffffffe06a05:	2d 41 20 58 22       	sub    $0x22582041,%eax
ffffffffffe06a0a:	20 61 74             	and    %ah,0x74(%rcx)
ffffffffffe06a0d:	20 74 68 65          	and    %dh,0x65(%rax,%rbp,2)
ffffffffffe06a11:	20 74 65 72          	and    %dh,0x72(%rbp,%riz,2)
ffffffffffe06a15:	6d                   	insl   (%dx),%es:(%rdi)
ffffffffffe06a16:	69 6e 61 6c 20 74 6f 	imul   $0x6f74206c,0x61(%rsi),%ebp
ffffffffffe06a1d:	20 73 74             	and    %dh,0x74(%rbx)
ffffffffffe06a20:	6f                   	outsl  %ds:(%rsi),(%dx)
ffffffffffe06a21:	70 2e                	jo     ffffffffffe06a51 <set_timeslice_len+0x3be>
ffffffffffe06a23:	00 0f                	add    %cl,(%rdi)
ffffffffffe06a25:	1f                   	(bad)  
ffffffffffe06a26:	40 00 47 65          	add    %al,0x65(%rdi)
ffffffffffe06a2a:	6e                   	outsb  %ds:(%rsi),(%dx)
ffffffffffe06a2b:	65 72 61             	gs jb  ffffffffffe06a8f <set_timeslice_len+0x3fc>
ffffffffffe06a2e:	6c                   	insb   (%dx),%es:(%rdi)
ffffffffffe06a2f:	20 50 72             	and    %dl,0x72(%rax)
ffffffffffe06a32:	6f                   	outsl  %ds:(%rsi),(%dx)
ffffffffffe06a33:	74 65                	je     ffffffffffe06a9a <set_timeslice_len+0x407>
ffffffffffe06a35:	63 74 69 6f          	movsxd 0x6f(%rcx,%rbp,2),%esi
ffffffffffe06a39:	6e                   	outsb  %ds:(%rsi),(%dx)
ffffffffffe06a3a:	20 46 61             	and    %al,0x61(%rsi)
ffffffffffe06a3d:	75 6c                	jne    ffffffffffe06aab <set_timeslice_len+0x418>
ffffffffffe06a3f:	74 00                	je     ffffffffffe06a41 <set_timeslice_len+0x3ae>
ffffffffffe06a41:	00 00                	add    %al,(%rax)
ffffffffffe06a43:	00 00                	add    %al,(%rax)
ffffffffffe06a45:	00 00                	add    %al,(%rax)
ffffffffffe06a47:	00 0a                	add    %cl,(%rdx)
ffffffffffe06a49:	43 72 61             	rex.XB jb ffffffffffe06aad <set_timeslice_len+0x41a>
ffffffffffe06a4c:	73 68                	jae    ffffffffffe06ab6 <set_timeslice_len+0x423>
ffffffffffe06a4e:	65 64 2e 20 55 73    	gs fs and %dl,%cs:0x73(%rbp)
ffffffffffe06a54:	65 20 43 74          	and    %al,%gs:0x74(%rbx)
ffffffffffe06a58:	72 6c                	jb     ffffffffffe06ac6 <set_timeslice_len+0x433>
ffffffffffe06a5a:	2d 43 20 6f 72       	sub    $0x726f2043,%eax
ffffffffffe06a5f:	20 22                	and    %ah,(%rdx)
ffffffffffe06a61:	43 74 72             	rex.XB je ffffffffffe06ad6 <set_timeslice_len+0x443>
ffffffffffe06a64:	6c                   	insb   (%dx),%es:(%rdi)
ffffffffffe06a65:	2d 41 20 58 22       	sub    $0x22582041,%eax
ffffffffffe06a6a:	20 61 74             	and    %ah,0x74(%rcx)
ffffffffffe06a6d:	20 74 68 65          	and    %dh,0x65(%rax,%rbp,2)
ffffffffffe06a71:	20 74 65 72          	and    %dh,0x72(%rbp,%riz,2)
ffffffffffe06a75:	6d                   	insl   (%dx),%es:(%rdi)
ffffffffffe06a76:	69 6e 61 6c 20 74 6f 	imul   $0x6f74206c,0x61(%rsi),%ebp
ffffffffffe06a7d:	20 73 74             	and    %dh,0x74(%rbx)
ffffffffffe06a80:	6f                   	outsl  %ds:(%rsi),(%dx)
ffffffffffe06a81:	70 2e                	jo     ffffffffffe06ab1 <set_timeslice_len+0x41e>
ffffffffffe06a83:	00 50 61             	add    %dl,0x61(%rax)
ffffffffffe06a86:	67 65 20 46 61       	and    %al,%gs:0x61(%esi)
ffffffffffe06a8b:	75 6c                	jne    ffffffffffe06af9 <set_timeslice_len+0x466>
ffffffffffe06a8d:	74 00                	je     ffffffffffe06a8f <set_timeslice_len+0x3fc>
ffffffffffe06a8f:	49 6e                	rex.WB outsb %ds:(%rsi),(%dx)
ffffffffffe06a91:	76 61                	jbe    ffffffffffe06af4 <set_timeslice_len+0x461>
ffffffffffe06a93:	6c                   	insb   (%dx),%es:(%rdi)
ffffffffffe06a94:	69 64 20 4f 70 63 6f 	imul   $0x646f6370,0x4f(%rax,%riz,1),%esp
ffffffffffe06a9b:	64 
ffffffffffe06a9c:	65 00 44 6f 75       	add    %al,%gs:0x75(%rdi,%rbp,2)
ffffffffffe06aa1:	62                   	(bad)  
ffffffffffe06aa2:	6c                   	insb   (%dx),%es:(%rdi)
ffffffffffe06aa3:	65 20 46 61          	and    %al,%gs:0x61(%rsi)
ffffffffffe06aa7:	75 6c                	jne    ffffffffffe06b15 <set_timeslice_len+0x482>
ffffffffffe06aa9:	74 00                	je     ffffffffffe06aab <set_timeslice_len+0x418>
ffffffffffe06aab:	53                   	push   %rbx
ffffffffffe06aac:	74 61                	je     ffffffffffe06b0f <set_timeslice_len+0x47c>
ffffffffffe06aae:	63 6b 20             	movsxd 0x20(%rbx),%ebp
ffffffffffe06ab1:	46 61                	rex.RX (bad) 
ffffffffffe06ab3:	75 6c                	jne    ffffffffffe06b21 <set_timeslice_len+0x48e>
ffffffffffe06ab5:	74 00                	je     ffffffffffe06ab7 <set_timeslice_len+0x424>
ffffffffffe06ab7:	43 6f                	rex.XB outsl %ds:(%rsi),(%dx)
ffffffffffe06ab9:	6e                   	outsb  %ds:(%rsi),(%dx)
ffffffffffe06aba:	74 72                	je     ffffffffffe06b2e <set_timeslice_len+0x49b>
ffffffffffe06abc:	6f                   	outsl  %ds:(%rsi),(%dx)
ffffffffffe06abd:	6c                   	insb   (%dx),%es:(%rdi)
ffffffffffe06abe:	20 46 6c             	and    %al,0x6c(%rsi)
ffffffffffe06ac1:	6f                   	outsl  %ds:(%rsi),(%dx)
ffffffffffe06ac2:	77 20                	ja     ffffffffffe06ae4 <set_timeslice_len+0x451>
ffffffffffe06ac4:	56                   	push   %rsi
ffffffffffe06ac5:	69 6f 6c 61 74 69 6f 	imul   $0x6f697461,0x6c(%rdi),%ebp
ffffffffffe06acc:	6e                   	outsb  %ds:(%rsi),(%dx)
ffffffffffe06acd:	00 66 90             	add    %ah,-0x70(%rsi)
ffffffffffe06ad0:	0a 23                	or     (%rbx),%ah
ffffffffffe06ad2:	23 23                	and    (%rbx),%esp
ffffffffffe06ad4:	20 45 52             	and    %al,0x52(%rbp)
ffffffffffe06ad7:	52                   	push   %rdx
ffffffffffe06ad8:	4f 52                	rex.WRXB push %r10
ffffffffffe06ada:	3a 20                	cmp    (%rax),%ah
ffffffffffe06adc:	46 69 6c 65 20 22 25 	imul   $0x22732522,0x20(%rbp,%r12,2),%r13d
ffffffffffe06ae3:	73 22 
ffffffffffe06ae5:	20 63 6f             	and    %ah,0x6f(%rbx)
ffffffffffe06ae8:	75 6c                	jne    ffffffffffe06b56 <set_timeslice_len+0x4c3>
ffffffffffe06aea:	64 20 6e 6f          	and    %ch,%fs:0x6f(%rsi)
ffffffffffe06aee:	74 20                	je     ffffffffffe06b10 <set_timeslice_len+0x47d>
ffffffffffe06af0:	62                   	(bad)  
ffffffffffe06af1:	65 20 66 6f          	and    %ah,%gs:0x6f(%rsi)
ffffffffffe06af5:	75 6e                	jne    ffffffffffe06b65 <set_timeslice_len+0x4d2>
ffffffffffe06af7:	64 20 69 6e          	and    %ch,%fs:0x6e(%rcx)
ffffffffffe06afb:	20 74 68 65          	and    %dh,0x65(%rax,%rbp,2)
ffffffffffe06aff:	20 69 6e             	and    %ch,0x6e(%rcx)
ffffffffffe06b02:	69 74 72 64 20 23 23 	imul   $0x23232320,0x64(%rdx,%rsi,2),%esi
ffffffffffe06b09:	23 
ffffffffffe06b0a:	0a 00                	or     (%rax),%al
ffffffffffe06b0c:	00 00                	add    %al,(%rax)
ffffffffffe06b0e:	00 00                	add    %al,(%rax)
ffffffffffe06b10:	0a 43 72             	or     0x72(%rbx),%al
ffffffffffe06b13:	61                   	(bad)  
ffffffffffe06b14:	73 68                	jae    ffffffffffe06b7e <set_timeslice_len+0x4eb>
ffffffffffe06b16:	65 64 2e 20 55 73    	gs fs and %dl,%cs:0x73(%rbp)
ffffffffffe06b1c:	65 20 43 74          	and    %al,%gs:0x74(%rbx)
ffffffffffe06b20:	72 6c                	jb     ffffffffffe06b8e <set_timeslice_len+0x4fb>
ffffffffffe06b22:	2d 43 20 6f 72       	sub    $0x726f2043,%eax
ffffffffffe06b27:	20 22                	and    %ah,(%rdx)
ffffffffffe06b29:	43 74 72             	rex.XB je ffffffffffe06b9e <set_timeslice_len+0x50b>
ffffffffffe06b2c:	6c                   	insb   (%dx),%es:(%rdi)
ffffffffffe06b2d:	2d 41 20 58 22       	sub    $0x22582041,%eax
ffffffffffe06b32:	20 61 74             	and    %ah,0x74(%rcx)
ffffffffffe06b35:	20 74 68 65          	and    %dh,0x65(%rax,%rbp,2)
ffffffffffe06b39:	20 74 65 72          	and    %dh,0x72(%rbp,%riz,2)
ffffffffffe06b3d:	6d                   	insl   (%dx),%es:(%rdi)
ffffffffffe06b3e:	69 6e 61 6c 20 74 6f 	imul   $0x6f74206c,0x61(%rsi),%ebp
ffffffffffe06b45:	20 73 74             	and    %dh,0x74(%rbx)
ffffffffffe06b48:	6f                   	outsl  %ds:(%rsi),(%dx)
ffffffffffe06b49:	70 2e                	jo     ffffffffffe06b79 <set_timeslice_len+0x4e6>
ffffffffffe06b4b:	00 0f                	add    %cl,(%rdi)
ffffffffffe06b4d:	1f                   	(bad)  
ffffffffffe06b4e:	40 00 49 6e          	add    %cl,0x6e(%rcx)
ffffffffffe06b52:	74 65                	je     ffffffffffe06bb9 <INVALID+0x1>
ffffffffffe06b54:	72 72                	jb     ffffffffffe06bc8 <INVALID+0x10>
ffffffffffe06b56:	75 70                	jne    ffffffffffe06bc8 <INVALID+0x10>
ffffffffffe06b58:	74 20                	je     ffffffffffe06b7a <set_timeslice_len+0x4e7>
ffffffffffe06b5a:	25 30 32 64 0a       	and    $0xa643230,%eax
ffffffffffe06b5f:	00 0a                	add    %cl,(%rdx)
ffffffffffe06b61:	23 23                	and    (%rbx),%esp
ffffffffffe06b63:	23 23                	and    (%rbx),%esp
ffffffffffe06b65:	20 41 6c             	and    %al,0x6c(%rcx)
ffffffffffe06b68:	6c                   	insb   (%dx),%es:(%rdi)
ffffffffffe06b69:	20 50 72             	and    %dl,0x72(%rax)
ffffffffffe06b6c:	6f                   	outsl  %ds:(%rsi),(%dx)
ffffffffffe06b6d:	63 65 73             	movsxd 0x73(%rbp),%esp
ffffffffffe06b70:	73 65                	jae    ffffffffffe06bd7 <INVALID+0x1f>
ffffffffffe06b72:	73 20                	jae    ffffffffffe06b94 <set_timeslice_len+0x501>
ffffffffffe06b74:	53                   	push   %rbx
ffffffffffe06b75:	74 6f                	je     ffffffffffe06be6 <INVALID+0x2e>
ffffffffffe06b77:	70 70                	jo     ffffffffffe06be9 <INVALID+0x31>
ffffffffffe06b79:	65 64 20 23          	gs and %ah,%fs:(%rbx)
ffffffffffe06b7d:	23 23                	and    (%rbx),%esp
ffffffffffe06b7f:	23 0a                	and    (%rdx),%ecx
ffffffffffe06b81:	00 00                	add    %al,(%rax)
ffffffffffe06b83:	00 00                	add    %al,(%rax)
ffffffffffe06b85:	00 00                	add    %al,(%rax)
ffffffffffe06b87:	00 3d 3d 3d 3d 3d    	add    %bh,0x3d3d3d3d(%rip)        # 3d1da8ca <_binary_font_psf_size+0x3d1da0aa>
ffffffffffe06b8d:	3d 3d 3d 3d 3d       	cmp    $0x3d3d3d3d,%eax
ffffffffffe06b92:	20 4f 69             	and    %cl,0x69(%rdi)
ffffffffffe06b95:	6e                   	outsb  %ds:(%rsi),(%dx)
ffffffffffe06b96:	6b 20 4f             	imul   $0x4f,(%rax),%esp
ffffffffffe06b99:	53                   	push   %rbx
ffffffffffe06b9a:	20 76 31             	and    %dh,0x31(%rsi)
ffffffffffe06b9d:	2e 33 20             	xor    %cs:(%rax),%esp
ffffffffffe06ba0:	3d 3d 3d 3d 3d       	cmp    $0x3d3d3d3d,%eax
ffffffffffe06ba5:	3d 3d 3d 3d 3d       	cmp    $0x3d3d3d3d,%eax
ffffffffffe06baa:	0a 00                	or     (%rax),%al
ffffffffffe06bac:	69 6e 69 74 00 0f 1f 	imul   $0x1f0f0074,0x69(%rsi),%ebp
ffffffffffe06bb3:	80 00 00             	addb   $0x0,(%rax)
	...

ffffffffffe06bb8 <INVALID>:
ffffffffffe06bb8:	ff ff ff ff ff ff ff ff 0a 23 23 23 20 45 52 52     .........### ERR
ffffffffffe06bc8:	4f 52 3a 20 4f 75 74 20 6f 66 20 6d 65 6d 6f 72     OR: Out of memor
ffffffffffe06bd8:	79 20 23 23 23 0a 00 00 0a 43 72 61 73 68 65 64     y ###....Crashed
ffffffffffe06be8:	2e 20 55 73 65 20 43 74 72 6c 2d 43 20 6f 72 20     . Use Ctrl-C or 
ffffffffffe06bf8:	22 43 74 72 6c 2d 41 20 58 22 20 61 74 20 74 68     "Ctrl-A X" at th
ffffffffffe06c08:	65 20 74 65 72 6d 69 6e 61 6c 20 74 6f 20 73 74     e terminal to st
ffffffffffe06c18:	6f 70 2e 00 00 00 00 00                             op......

ffffffffffe06c20 <block_size>:
ffffffffffe06c20:	00 a0 00 00 00 00 00 00 73 74 72 75 63 74 75 72     ........structur
ffffffffffe06c30:	65 20 74 6f 6f 20 62 69 67 20 66 6f 72 20 6d 61     e too big for ma
ffffffffffe06c40:	6c 6c 6f 63 20 75 73 65 20 67 65 74 5f 66 72 65     lloc use get_fre
ffffffffffe06c50:	65 5f 70 61 67 65 00 45 52 52 4f 52 3a 20 25 73     e_page.ERROR: %s
ffffffffffe06c60:	0a 00 53 63 68 65 64 75 6c 65 72 20 53 74 61 74     ..Scheduler Stat
ffffffffffe06c70:	65 3a 0a 00 54 61 73 6b 20 4e 61 6d 65 3a 20 25     e:..Task Name: %
ffffffffffe06c80:	73 0a 00 50 72 69 6f 72 69 74 79 3a 20 25 6c 6c     s..Priority: %ll
ffffffffffe06c90:	75 0a 00 0a 00 45 6e 64 20 6f 66 20 53 63 68 65     u....End of Sche
ffffffffffe06ca0:	64 75 6c 65 72 20 53 74 61 74 65 0a 00 5b 25 30     duler State..[%0
ffffffffffe06cb0:	39 64 5d 20 50 49 44 20 25 30 32 64 20 28 25 73     9d] PID %02d (%s
ffffffffffe06cc0:	20 25 73 29 20 00 73 79 73 63 61 6c 6c 20 77 72      %s) .syscall wr
ffffffffffe06cd0:	69 74 65 28 2e 2e 2e 29 0a 00 25 73 00 73 79 73     ite(...)..%s.sys
ffffffffffe06ce0:	63 61 6c 6c 20 65 78 69 74 28 29 0a 00 73 79 73     call exit()..sys
ffffffffffe06cf0:	63 61 6c 6c 20 73 70 61 77 6e 28 22 25 73 22 2c     call spawn("%s",
ffffffffffe06d00:	20 22 25 73 22 29 0a 00 73 79 73 63 61 6c 6c 20      "%s")..syscall 
ffffffffffe06d10:	73 6c 65 65 70 28 25 6c 64 29 0a 00 73 79 73 63     sleep(%ld)..sysc
ffffffffffe06d20:	61 6c 6c 20 77 61 69 74 28 25 6c 64 29 0a 00 90     all wait(%ld)...
ffffffffffe06d30:	5b 25 30 39 64 5d 20 50 49 44 20 25 30 32 64 20     [%09d] PID %02d 
ffffffffffe06d40:	28 25 73 20 25 73 29 20 00 57 61 6b 69 6e 67 20     (%s %s) .Waking 
ffffffffffe06d50:	70 69 64 20 25 64 0a 00 74 69 6d 65 20 73 6c 69     pid %d..time sli
ffffffffffe06d60:	63 65 20 65 78 70 69 72 65 64 2c 20 73 63 68 65     ce expired, sche
ffffffffffe06d70:	64 75 6c 69 6e 67 20 73 6f 6f 6e 0a 00 00 00 00     duling soon.....
ffffffffffe06d80:	0a 23 23 23 20 45 52 52 4f 52 3a 20 64 65 71 75     .### ERROR: dequ
ffffffffffe06d90:	65 75 65 5f 6e 65 78 74 5f 74 61 73 6b 20 72 65     eue_next_task re
ffffffffffe06da0:	74 75 72 6e 65 64 20 61 20 74 61 73 6b 20 74 68     turned a task th
ffffffffffe06db0:	61 74 20 68 61 73 20 61 6c 72 65 61 64 79 20 65     at has already e
ffffffffffe06dc0:	6e 64 65 64 20 23 23 23 0a 0a 00 00 00 00 00 00     nded ###........
ffffffffffe06dd0:	0a 43 72 61 73 68 65 64 2e 20 55 73 65 20 43 74     .Crashed. Use Ct
ffffffffffe06de0:	72 6c 2d 43 20 6f 72 20 22 43 74 72 6c 2d 41 20     rl-C or "Ctrl-A 
ffffffffffe06df0:	58 22 20 61 74 20 74 68 65 20 74 65 72 6d 69 6e     X" at the termin
ffffffffffe06e00:	61 6c 20 74 6f 20 73 74 6f 70 2e 00 00 00 00 00     al to stop......
ffffffffffe06e10:	0a 23 23 23 20 45 52 52 4f 52 3a 20 64 65 71 75     .### ERROR: dequ
ffffffffffe06e20:	65 75 65 5f 6e 65 78 74 5f 74 61 73 6b 20 72 65     eue_next_task re
ffffffffffe06e30:	74 75 72 6e 65 64 20 73 6f 6d 65 74 68 69 6e 67     turned something
ffffffffffe06e40:	20 74 68 61 74 20 64 6f 65 73 6e 27 74 20 6c 6f      that doesn't lo
ffffffffffe06e50:	6f 6b 20 6c 69 6b 65 20 61 20 74 61 73 6b 20 23     ok like a task #
ffffffffffe06e60:	23 23 0a 0a 00 00 00 00 0a 23 23 23 20 45 52 52     ##.......### ERR
ffffffffffe06e70:	4f 52 3a 20 64 65 71 75 65 75 65 5f 6e 65 78 74     OR: dequeue_next
ffffffffffe06e80:	5f 74 61 73 6b 20 72 65 74 75 72 6e 65 64 20 74     _task returned t
ffffffffffe06e90:	68 65 20 69 64 6c 65 20 74 61 73 6b 20 28 68 6f     he idle task (ho
ffffffffffe06ea0:	77 20 64 69 64 20 79 6f 75 20 65 76 65 6e 20 64     w did you even d
ffffffffffe06eb0:	6f 20 74 68 61 74 3f 21 29 20 23 23 23 0a 0a 00     o that?!) ###...
ffffffffffe06ec0:	0a 23 23 23 20 45 52 52 4f 52 3a 20 64 65 71 75     .### ERROR: dequ
ffffffffffe06ed0:	65 75 65 5f 6e 65 78 74 5f 74 61 73 6b 20 72 65     eue_next_task re
ffffffffffe06ee0:	74 75 72 6e 65 64 20 61 20 74 61 73 6b 20 74 68     turned a task th
ffffffffffe06ef0:	61 74 20 69 73 6e 27 74 20 6f 6e 20 74 68 65 20     at isn't on the 
ffffffffffe06f00:	72 75 6e 71 75 65 75 65 20 23 23 23 0a 0a 00 00     runqueue ###....
ffffffffffe06f10:	0a 23 23 23 20 45 52 52 4f 52 3a 20 67 6f 69 6e     .### ERROR: goin
ffffffffffe06f20:	67 20 69 64 6c 65 20 77 68 65 6e 20 74 68 65 72     g idle when ther
ffffffffffe06f30:	65 20 61 72 65 20 74 61 73 6b 73 20 74 6f 20 72     e are tasks to r
ffffffffffe06f40:	75 6e 20 23 23 23 0a 00 24 24 20 74 69 6d 65 73     un ###..$$ times
ffffffffffe06f50:	6c 69 63 65 20 73 75 6d 6d 61 72 79 20 66 6f 72     lice summary for
ffffffffffe06f60:	20 70 69 64 20 25 6c 64 20 28 25 73 20 25 73 29      pid %ld (%s %s)
ffffffffffe06f70:	20 3a 20 71 75 65 75 65 64 20 61 74 20 25 6c 64      : queued at %ld
ffffffffffe06f80:	2c 20 72 61 6e 20 61 74 20 25 6c 64 2c 20 65 6e     , ran at %ld, en
ffffffffffe06f90:	64 65 64 20 61 74 20 25 6c 64 0a 00 3d 3d 3d 20     ded at %ld..=== 
ffffffffffe06fa0:	73 63 68 65 64 75 6c 65 20 70 69 64 20 25 6c 64     schedule pid %ld
ffffffffffe06fb0:	20 28 25 73 20 25 73 29 0a 00 69 64 6c 65 00 90      (%s %s)..idle..
ffffffffffe06fc0:	3c 70 72 6f 63 73 3e 0a 00 00 00 00 00 00 00 00     <procs>.........
ffffffffffe06fd0:	20 20 20 50 49 44 20 25 32 64 20 28 25 73 20 25        PID %2d (%s %
ffffffffffe06fe0:	73 29 20 6f 6e 5f 72 75 6e 71 75 65 75 65 3a 20     s) on_runqueue: 
ffffffffffe06ff0:	25 64 0a 00 3c 2f 70 72 6f 63 73 3e 0a 00 46 72     %d..</procs>..Fr
ffffffffffe07000:	65 65 69 6e 67 20 25 6c 64 20 25 73 0a 00 5b 25     eeing %ld %s..[%
ffffffffffe07010:	30 39 64 5d 20 50 49 44 20 25 30 32 64 20 28 25     09d] PID %02d (%
ffffffffffe07020:	73 20 25 73 29 20 00 74 68 72 65 61 64 20 73 74     s %s) .thread st
ffffffffffe07030:	6f 70 70 65 64 0a 00 2a 2a 2a 20 74 69 6d 65 72     opped..*** timer
ffffffffffe07040:	20 77 6f 6b 65 20 70 69 64 20 25 6c 64 0a 00 5b      woke pid %ld..[
ffffffffffe07050:	25 30 39 64 5d 20 50 49 44 20 25 30 32 64 20 28     %09d] PID %02d (
ffffffffffe07060:	25 73 20 25 73 29 20 00 73 6c 65 65 70 69 6e 67     %s %s) .sleeping
ffffffffffe07070:	20 75 6e 74 69 6c 20 25 6c 64 0a 00                  until %ld..

ffffffffffe0707c <_binary_font_psf_start>:
ffffffffffe0707c:	72 b5                	jb     ffffffffffe07033 <block_size+0x413>
ffffffffffe0707e:	4a 86 00             	rex.WX xchg %al,(%rax)
ffffffffffe07081:	00 00                	add    %al,(%rax)
ffffffffffe07083:	00 20                	add    %ah,(%rax)
ffffffffffe07085:	00 00                	add    %al,(%rax)
ffffffffffe07087:	00 00                	add    %al,(%rax)
ffffffffffe07089:	00 0c 00             	add    %cl,(%rax,%rax,1)
ffffffffffe0708c:	80 00 00             	addb   $0x0,(%rax)
ffffffffffe0708f:	00 10                	add    %dl,(%rax)
ffffffffffe07091:	00 00                	add    %al,(%rax)
ffffffffffe07093:	00 10                	add    %dl,(%rax)
ffffffffffe07095:	00 00                	add    %al,(%rax)
ffffffffffe07097:	00 08                	add    %cl,(%rax)
ffffffffffe07099:	00 00                	add    %al,(%rax)
ffffffffffe0709b:	00 00                	add    %al,(%rax)
ffffffffffe0709d:	00 da                	add    %bl,%dl
ffffffffffe0709f:	02 80 82 02 80 82    	add    -0x7d7ffd7e(%rax),%al
ffffffffffe070a5:	02 80 b6 00 00 00    	add    0xb6(%rax),%al
ffffffffffe070ab:	00 00                	add    %al,(%rax)
ffffffffffe070ad:	00 7e 81             	add    %bh,-0x7f(%rsi)
ffffffffffe070b0:	a5                   	movsl  %ds:(%rsi),%es:(%rdi)
ffffffffffe070b1:	81 81 bd 99 81 81 7e 	addl   $0x7e,-0x7e7e6643(%rcx)
ffffffffffe070b8:	00 00 00 
ffffffffffe070bb:	00 00                	add    %al,(%rax)
ffffffffffe070bd:	00 7e ff             	add    %bh,-0x1(%rsi)
ffffffffffe070c0:	db ff                	(bad)  
ffffffffffe070c2:	ff c3                	inc    %ebx
ffffffffffe070c4:	e7 ff                	out    %eax,$0xff
ffffffffffe070c6:	ff                   	(bad)  
ffffffffffe070c7:	7e 00                	jle    ffffffffffe070c9 <_binary_font_psf_start+0x4d>
ffffffffffe070c9:	00 00                	add    %al,(%rax)
ffffffffffe070cb:	00 00                	add    %al,(%rax)
ffffffffffe070cd:	00 00                	add    %al,(%rax)
ffffffffffe070cf:	00 6c fe fe          	add    %ch,-0x2(%rsi,%rdi,8)
ffffffffffe070d3:	fe                   	(bad)  
ffffffffffe070d4:	fe                   	(bad)  
ffffffffffe070d5:	7c 38                	jl     ffffffffffe0710f <_binary_font_psf_start+0x93>
ffffffffffe070d7:	10 00                	adc    %al,(%rax)
ffffffffffe070d9:	00 00                	add    %al,(%rax)
ffffffffffe070db:	00 00                	add    %al,(%rax)
ffffffffffe070dd:	00 00                	add    %al,(%rax)
ffffffffffe070df:	00 10                	add    %dl,(%rax)
ffffffffffe070e1:	38 7c fe 7c          	cmp    %bh,0x7c(%rsi,%rdi,8)
ffffffffffe070e5:	38 10                	cmp    %dl,(%rax)
	...
ffffffffffe070ef:	18 3c 3c             	sbb    %bh,(%rsp,%rdi,1)
ffffffffffe070f2:	e7 e7                	out    %eax,$0xe7
ffffffffffe070f4:	e7 18                	out    %eax,$0x18
ffffffffffe070f6:	18 3c 00             	sbb    %bh,(%rax,%rax,1)
ffffffffffe070f9:	00 00                	add    %al,(%rax)
ffffffffffe070fb:	00 00                	add    %al,(%rax)
ffffffffffe070fd:	00 00                	add    %al,(%rax)
ffffffffffe070ff:	18 3c 7e             	sbb    %bh,(%rsi,%rdi,2)
ffffffffffe07102:	ff                   	(bad)  
ffffffffffe07103:	ff                   	(bad)  
ffffffffffe07104:	7e 18                	jle    ffffffffffe0711e <_binary_font_psf_start+0xa2>
ffffffffffe07106:	18 3c 00             	sbb    %bh,(%rax,%rax,1)
	...
ffffffffffe07111:	00 18                	add    %bl,(%rax)
ffffffffffe07113:	3c 3c                	cmp    $0x3c,%al
ffffffffffe07115:	18 00                	sbb    %al,(%rax)
ffffffffffe07117:	00 00                	add    %al,(%rax)
ffffffffffe07119:	00 00                	add    %al,(%rax)
ffffffffffe0711b:	00 ff                	add    %bh,%bh
ffffffffffe0711d:	ff                   	(bad)  
ffffffffffe0711e:	ff                   	(bad)  
ffffffffffe0711f:	ff                   	(bad)  
ffffffffffe07120:	ff                   	(bad)  
ffffffffffe07121:	ff e7                	jmpq   *%rdi
ffffffffffe07123:	c3                   	retq   
ffffffffffe07124:	c3                   	retq   
ffffffffffe07125:	e7 ff                	out    %eax,$0xff
ffffffffffe07127:	ff                   	(bad)  
ffffffffffe07128:	ff                   	(bad)  
ffffffffffe07129:	ff                   	(bad)  
ffffffffffe0712a:	ff                   	(bad)  
ffffffffffe0712b:	ff 00                	incl   (%rax)
ffffffffffe0712d:	00 00                	add    %al,(%rax)
ffffffffffe0712f:	00 00                	add    %al,(%rax)
ffffffffffe07131:	3c 66                	cmp    $0x66,%al
ffffffffffe07133:	42                   	rex.X
ffffffffffe07134:	42                   	rex.X
ffffffffffe07135:	66 3c 00             	data16 cmp $0x0,%al
ffffffffffe07138:	00 00                	add    %al,(%rax)
ffffffffffe0713a:	00 00                	add    %al,(%rax)
ffffffffffe0713c:	ff                   	(bad)  
ffffffffffe0713d:	ff                   	(bad)  
ffffffffffe0713e:	ff                   	(bad)  
ffffffffffe0713f:	ff                   	(bad)  
ffffffffffe07140:	ff c3                	inc    %ebx
ffffffffffe07142:	99                   	cltd   
ffffffffffe07143:	bd bd 99 c3 ff       	mov    $0xffc399bd,%ebp
ffffffffffe07148:	ff                   	(bad)  
ffffffffffe07149:	ff                   	(bad)  
ffffffffffe0714a:	ff                   	(bad)  
ffffffffffe0714b:	ff 00                	incl   (%rax)
ffffffffffe0714d:	00 1e                	add    %bl,(%rsi)
ffffffffffe0714f:	0e                   	(bad)  
ffffffffffe07150:	1a 32                	sbb    (%rdx),%dh
ffffffffffe07152:	78 cc                	js     ffffffffffe07120 <_binary_font_psf_start+0xa4>
ffffffffffe07154:	cc                   	int3   
ffffffffffe07155:	cc                   	int3   
ffffffffffe07156:	cc                   	int3   
ffffffffffe07157:	78 00                	js     ffffffffffe07159 <_binary_font_psf_start+0xdd>
ffffffffffe07159:	00 00                	add    %al,(%rax)
ffffffffffe0715b:	00 00                	add    %al,(%rax)
ffffffffffe0715d:	00 3c 66             	add    %bh,(%rsi,%riz,2)
ffffffffffe07160:	66 66 66 3c 18       	data16 data16 data16 cmp $0x18,%al
ffffffffffe07165:	7e 18                	jle    ffffffffffe0717f <_binary_font_psf_start+0x103>
ffffffffffe07167:	18 00                	sbb    %al,(%rax)
ffffffffffe07169:	00 00                	add    %al,(%rax)
ffffffffffe0716b:	00 00                	add    %al,(%rax)
ffffffffffe0716d:	00 3f                	add    %bh,(%rdi)
ffffffffffe0716f:	33 3f                	xor    (%rdi),%edi
ffffffffffe07171:	30 30                	xor    %dh,(%rax)
ffffffffffe07173:	30 30                	xor    %dh,(%rax)
ffffffffffe07175:	70 f0                	jo     ffffffffffe07167 <_binary_font_psf_start+0xeb>
ffffffffffe07177:	e0 00                	loopne ffffffffffe07179 <_binary_font_psf_start+0xfd>
ffffffffffe07179:	00 00                	add    %al,(%rax)
ffffffffffe0717b:	00 00                	add    %al,(%rax)
ffffffffffe0717d:	00 7f 63             	add    %bh,0x63(%rdi)
ffffffffffe07180:	7f 63                	jg     ffffffffffe071e5 <_binary_font_psf_start+0x169>
ffffffffffe07182:	63 63 63             	movsxd 0x63(%rbx),%esp
ffffffffffe07185:	67 e7 e6             	addr32 out %eax,$0xe6
ffffffffffe07188:	c0 00 00             	rolb   $0x0,(%rax)
ffffffffffe0718b:	00 00                	add    %al,(%rax)
ffffffffffe0718d:	00 00                	add    %al,(%rax)
ffffffffffe0718f:	18 18                	sbb    %bl,(%rax)
ffffffffffe07191:	db 3c e7             	fstpt  (%rdi,%riz,8)
ffffffffffe07194:	3c db                	cmp    $0xdb,%al
ffffffffffe07196:	18 18                	sbb    %bl,(%rax)
ffffffffffe07198:	00 00                	add    %al,(%rax)
ffffffffffe0719a:	00 00                	add    %al,(%rax)
ffffffffffe0719c:	00 80 c0 e0 f0 f8    	add    %al,-0x70f1f40(%rax)
ffffffffffe071a2:	fe                   	(bad)  
ffffffffffe071a3:	f8                   	clc    
ffffffffffe071a4:	f0 e0 c0             	lock loopne ffffffffffe07167 <_binary_font_psf_start+0xeb>
ffffffffffe071a7:	80 00 00             	addb   $0x0,(%rax)
ffffffffffe071aa:	00 00                	add    %al,(%rax)
ffffffffffe071ac:	00 02                	add    %al,(%rdx)
ffffffffffe071ae:	06                   	(bad)  
ffffffffffe071af:	0e                   	(bad)  
ffffffffffe071b0:	1e                   	(bad)  
ffffffffffe071b1:	3e fe                	ds (bad) 
ffffffffffe071b3:	3e 1e                	ds (bad) 
ffffffffffe071b5:	0e                   	(bad)  
ffffffffffe071b6:	06                   	(bad)  
ffffffffffe071b7:	02 00                	add    (%rax),%al
ffffffffffe071b9:	00 00                	add    %al,(%rax)
ffffffffffe071bb:	00 00                	add    %al,(%rax)
ffffffffffe071bd:	00 18                	add    %bl,(%rax)
ffffffffffe071bf:	3c 7e                	cmp    $0x7e,%al
ffffffffffe071c1:	18 18                	sbb    %bl,(%rax)
ffffffffffe071c3:	18 7e 3c             	sbb    %bh,0x3c(%rsi)
ffffffffffe071c6:	18 00                	sbb    %al,(%rax)
ffffffffffe071c8:	00 00                	add    %al,(%rax)
ffffffffffe071ca:	00 00                	add    %al,(%rax)
ffffffffffe071cc:	00 00                	add    %al,(%rax)
ffffffffffe071ce:	66 66 66 66 66 66 66 	data16 data16 data16 data16 data16 data16 data16 add %ah,0x66(%rsi)
ffffffffffe071d5:	00 66 66 
ffffffffffe071d8:	00 00                	add    %al,(%rax)
ffffffffffe071da:	00 00                	add    %al,(%rax)
ffffffffffe071dc:	00 00                	add    %al,(%rax)
ffffffffffe071de:	7f db                	jg     ffffffffffe071bb <_binary_font_psf_start+0x13f>
ffffffffffe071e0:	db db                	fcmovnu %st(3),%st
ffffffffffe071e2:	7b 1b                	jnp    ffffffffffe071ff <_binary_font_psf_start+0x183>
ffffffffffe071e4:	1b 1b                	sbb    (%rbx),%ebx
ffffffffffe071e6:	1b 1b                	sbb    (%rbx),%ebx
ffffffffffe071e8:	00 00                	add    %al,(%rax)
ffffffffffe071ea:	00 00                	add    %al,(%rax)
ffffffffffe071ec:	00 7c c6 60          	add    %bh,0x60(%rsi,%rax,8)
ffffffffffe071f0:	38 6c c6 c6          	cmp    %ch,-0x3a(%rsi,%rax,8)
ffffffffffe071f4:	6c                   	insb   (%dx),%es:(%rdi)
ffffffffffe071f5:	38 0c c6             	cmp    %cl,(%rsi,%rax,8)
ffffffffffe071f8:	7c 00                	jl     ffffffffffe071fa <_binary_font_psf_start+0x17e>
	...
ffffffffffe07202:	00 00                	add    %al,(%rax)
ffffffffffe07204:	fe                   	(bad)  
ffffffffffe07205:	fe                   	(bad)  
ffffffffffe07206:	fe                   	(bad)  
ffffffffffe07207:	fe 00                	incb   (%rax)
ffffffffffe07209:	00 00                	add    %al,(%rax)
ffffffffffe0720b:	00 00                	add    %al,(%rax)
ffffffffffe0720d:	00 18                	add    %bl,(%rax)
ffffffffffe0720f:	3c 7e                	cmp    $0x7e,%al
ffffffffffe07211:	18 18                	sbb    %bl,(%rax)
ffffffffffe07213:	18 7e 3c             	sbb    %bh,0x3c(%rsi)
ffffffffffe07216:	18 7e 00             	sbb    %bh,0x0(%rsi)
ffffffffffe07219:	00 00                	add    %al,(%rax)
ffffffffffe0721b:	00 00                	add    %al,(%rax)
ffffffffffe0721d:	00 18                	add    %bl,(%rax)
ffffffffffe0721f:	3c 7e                	cmp    $0x7e,%al
ffffffffffe07221:	18 18                	sbb    %bl,(%rax)
ffffffffffe07223:	18 18                	sbb    %bl,(%rax)
ffffffffffe07225:	18 18                	sbb    %bl,(%rax)
ffffffffffe07227:	18 00                	sbb    %al,(%rax)
ffffffffffe07229:	00 00                	add    %al,(%rax)
ffffffffffe0722b:	00 00                	add    %al,(%rax)
ffffffffffe0722d:	00 18                	add    %bl,(%rax)
ffffffffffe0722f:	18 18                	sbb    %bl,(%rax)
ffffffffffe07231:	18 18                	sbb    %bl,(%rax)
ffffffffffe07233:	18 18                	sbb    %bl,(%rax)
ffffffffffe07235:	7e 3c                	jle    ffffffffffe07273 <_binary_font_psf_start+0x1f7>
ffffffffffe07237:	18 00                	sbb    %al,(%rax)
	...
ffffffffffe07241:	18 0c fe             	sbb    %cl,(%rsi,%rdi,8)
ffffffffffe07244:	0c 18                	or     $0x18,%al
	...
ffffffffffe0724e:	00 00                	add    %al,(%rax)
ffffffffffe07250:	00 30                	add    %dh,(%rax)
ffffffffffe07252:	60                   	(bad)  
ffffffffffe07253:	fe                   	(bad)  
ffffffffffe07254:	60                   	(bad)  
ffffffffffe07255:	30 00                	xor    %al,(%rax)
	...
ffffffffffe0725f:	00 00                	add    %al,(%rax)
ffffffffffe07261:	00 c0                	add    %al,%al
ffffffffffe07263:	c0 c0 fe             	rol    $0xfe,%al
	...
ffffffffffe0726e:	00 00                	add    %al,(%rax)
ffffffffffe07270:	00 28                	add    %ch,(%rax)
ffffffffffe07272:	6c                   	insb   (%dx),%es:(%rdi)
ffffffffffe07273:	fe                   	(bad)  
ffffffffffe07274:	6c                   	insb   (%dx),%es:(%rdi)
ffffffffffe07275:	28 00                	sub    %al,(%rax)
	...
ffffffffffe0727f:	00 10                	add    %dl,(%rax)
ffffffffffe07281:	38 38                	cmp    %bh,(%rax)
ffffffffffe07283:	7c 7c                	jl     ffffffffffe07301 <_binary_font_psf_start+0x285>
ffffffffffe07285:	fe                   	(bad)  
ffffffffffe07286:	fe 00                	incb   (%rax)
	...
ffffffffffe07290:	fe                   	(bad)  
ffffffffffe07291:	fe                   	(bad)  
ffffffffffe07292:	7c 7c                	jl     ffffffffffe07310 <_binary_font_psf_start+0x294>
ffffffffffe07294:	38 38                	cmp    %bh,(%rax)
ffffffffffe07296:	10 00                	adc    %al,(%rax)
	...
ffffffffffe072ac:	00 00                	add    %al,(%rax)
ffffffffffe072ae:	18 3c 3c             	sbb    %bh,(%rsp,%rdi,1)
ffffffffffe072b1:	3c 18                	cmp    $0x18,%al
ffffffffffe072b3:	18 18                	sbb    %bl,(%rax)
ffffffffffe072b5:	00 18                	add    %bl,(%rax)
ffffffffffe072b7:	18 00                	sbb    %al,(%rax)
ffffffffffe072b9:	00 00                	add    %al,(%rax)
ffffffffffe072bb:	00 00                	add    %al,(%rax)
ffffffffffe072bd:	66 66 66 24 00       	data16 data16 data16 and $0x0,%al
	...
ffffffffffe072ce:	00 6c 6c fe          	add    %ch,-0x2(%rsp,%rbp,2)
ffffffffffe072d2:	6c                   	insb   (%dx),%es:(%rdi)
ffffffffffe072d3:	6c                   	insb   (%dx),%es:(%rdi)
ffffffffffe072d4:	6c                   	insb   (%dx),%es:(%rdi)
ffffffffffe072d5:	fe                   	(bad)  
ffffffffffe072d6:	6c                   	insb   (%dx),%es:(%rdi)
ffffffffffe072d7:	6c                   	insb   (%dx),%es:(%rdi)
ffffffffffe072d8:	00 00                	add    %al,(%rax)
ffffffffffe072da:	00 00                	add    %al,(%rax)
ffffffffffe072dc:	18 18                	sbb    %bl,(%rax)
ffffffffffe072de:	7c c6                	jl     ffffffffffe072a6 <_binary_font_psf_start+0x22a>
ffffffffffe072e0:	c2 c0 7c             	retq   $0x7cc0
ffffffffffe072e3:	06                   	(bad)  
ffffffffffe072e4:	06                   	(bad)  
ffffffffffe072e5:	86 c6                	xchg   %al,%dh
ffffffffffe072e7:	7c 18                	jl     ffffffffffe07301 <_binary_font_psf_start+0x285>
ffffffffffe072e9:	18 00                	sbb    %al,(%rax)
ffffffffffe072eb:	00 00                	add    %al,(%rax)
ffffffffffe072ed:	00 00                	add    %al,(%rax)
ffffffffffe072ef:	00 c2                	add    %al,%dl
ffffffffffe072f1:	c6                   	(bad)  
ffffffffffe072f2:	0c 18                	or     $0x18,%al
ffffffffffe072f4:	30 60 c6             	xor    %ah,-0x3a(%rax)
ffffffffffe072f7:	86 00                	xchg   %al,(%rax)
ffffffffffe072f9:	00 00                	add    %al,(%rax)
ffffffffffe072fb:	00 00                	add    %al,(%rax)
ffffffffffe072fd:	00 38                	add    %bh,(%rax)
ffffffffffe072ff:	6c                   	insb   (%dx),%es:(%rdi)
ffffffffffe07300:	6c                   	insb   (%dx),%es:(%rdi)
ffffffffffe07301:	38 76 dc             	cmp    %dh,-0x24(%rsi)
ffffffffffe07304:	cc                   	int3   
ffffffffffe07305:	cc                   	int3   
ffffffffffe07306:	cc                   	int3   
ffffffffffe07307:	76 00                	jbe    ffffffffffe07309 <_binary_font_psf_start+0x28d>
ffffffffffe07309:	00 00                	add    %al,(%rax)
ffffffffffe0730b:	00 00                	add    %al,(%rax)
ffffffffffe0730d:	30 30                	xor    %dh,(%rax)
ffffffffffe0730f:	30 20                	xor    %ah,(%rax)
	...
ffffffffffe0731d:	00 0c 18             	add    %cl,(%rax,%rbx,1)
ffffffffffe07320:	30 30                	xor    %dh,(%rax)
ffffffffffe07322:	30 30                	xor    %dh,(%rax)
ffffffffffe07324:	30 30                	xor    %dh,(%rax)
ffffffffffe07326:	18 0c 00             	sbb    %cl,(%rax,%rax,1)
ffffffffffe07329:	00 00                	add    %al,(%rax)
ffffffffffe0732b:	00 00                	add    %al,(%rax)
ffffffffffe0732d:	00 30                	add    %dh,(%rax)
ffffffffffe0732f:	18 0c 0c             	sbb    %cl,(%rsp,%rcx,1)
ffffffffffe07332:	0c 0c                	or     $0xc,%al
ffffffffffe07334:	0c 0c                	or     $0xc,%al
ffffffffffe07336:	18 30                	sbb    %dh,(%rax)
	...
ffffffffffe07340:	00 66 3c             	add    %ah,0x3c(%rsi)
ffffffffffe07343:	ff                   	(bad)  
ffffffffffe07344:	3c 66                	cmp    $0x66,%al
	...
ffffffffffe0734e:	00 00                	add    %al,(%rax)
ffffffffffe07350:	00 18                	add    %bl,(%rax)
ffffffffffe07352:	18 7e 18             	sbb    %bh,0x18(%rsi)
ffffffffffe07355:	18 00                	sbb    %al,(%rax)
	...
ffffffffffe07363:	00 00                	add    %al,(%rax)
ffffffffffe07365:	18 18                	sbb    %bl,(%rax)
ffffffffffe07367:	18 30                	sbb    %dh,(%rax)
	...
ffffffffffe07371:	00 00                	add    %al,(%rax)
ffffffffffe07373:	fe 00                	incb   (%rax)
	...
ffffffffffe07385:	00 18                	add    %bl,(%rax)
ffffffffffe07387:	18 00                	sbb    %al,(%rax)
ffffffffffe07389:	00 00                	add    %al,(%rax)
ffffffffffe0738b:	00 00                	add    %al,(%rax)
ffffffffffe0738d:	00 00                	add    %al,(%rax)
ffffffffffe0738f:	00 02                	add    %al,(%rdx)
ffffffffffe07391:	06                   	(bad)  
ffffffffffe07392:	0c 18                	or     $0x18,%al
ffffffffffe07394:	30 60 c0             	xor    %ah,-0x40(%rax)
ffffffffffe07397:	80 00 00             	addb   $0x0,(%rax)
ffffffffffe0739a:	00 00                	add    %al,(%rax)
ffffffffffe0739c:	00 00                	add    %al,(%rax)
ffffffffffe0739e:	38 6c c6 c6          	cmp    %ch,-0x3a(%rsi,%rax,8)
ffffffffffe073a2:	d6                   	(bad)  
ffffffffffe073a3:	d6                   	(bad)  
ffffffffffe073a4:	c6 c6 6c             	mov    $0x6c,%dh
ffffffffffe073a7:	38 00                	cmp    %al,(%rax)
ffffffffffe073a9:	00 00                	add    %al,(%rax)
ffffffffffe073ab:	00 00                	add    %al,(%rax)
ffffffffffe073ad:	00 18                	add    %bl,(%rax)
ffffffffffe073af:	38 78 18             	cmp    %bh,0x18(%rax)
ffffffffffe073b2:	18 18                	sbb    %bl,(%rax)
ffffffffffe073b4:	18 18                	sbb    %bl,(%rax)
ffffffffffe073b6:	18 7e 00             	sbb    %bh,0x0(%rsi)
ffffffffffe073b9:	00 00                	add    %al,(%rax)
ffffffffffe073bb:	00 00                	add    %al,(%rax)
ffffffffffe073bd:	00 7c c6 06          	add    %bh,0x6(%rsi,%rax,8)
ffffffffffe073c1:	0c 18                	or     $0x18,%al
ffffffffffe073c3:	30 60 c0             	xor    %ah,-0x40(%rax)
ffffffffffe073c6:	c6                   	(bad)  
ffffffffffe073c7:	fe 00                	incb   (%rax)
ffffffffffe073c9:	00 00                	add    %al,(%rax)
ffffffffffe073cb:	00 00                	add    %al,(%rax)
ffffffffffe073cd:	00 7c c6 06          	add    %bh,0x6(%rsi,%rax,8)
ffffffffffe073d1:	06                   	(bad)  
ffffffffffe073d2:	3c 06                	cmp    $0x6,%al
ffffffffffe073d4:	06                   	(bad)  
ffffffffffe073d5:	06                   	(bad)  
ffffffffffe073d6:	c6                   	(bad)  
ffffffffffe073d7:	7c 00                	jl     ffffffffffe073d9 <_binary_font_psf_start+0x35d>
ffffffffffe073d9:	00 00                	add    %al,(%rax)
ffffffffffe073db:	00 00                	add    %al,(%rax)
ffffffffffe073dd:	00 0c 1c             	add    %cl,(%rsp,%rbx,1)
ffffffffffe073e0:	3c 6c                	cmp    $0x6c,%al
ffffffffffe073e2:	cc                   	int3   
ffffffffffe073e3:	fe 0c 0c             	decb   (%rsp,%rcx,1)
ffffffffffe073e6:	0c 1e                	or     $0x1e,%al
ffffffffffe073e8:	00 00                	add    %al,(%rax)
ffffffffffe073ea:	00 00                	add    %al,(%rax)
ffffffffffe073ec:	00 00                	add    %al,(%rax)
ffffffffffe073ee:	fe c0                	inc    %al
ffffffffffe073f0:	c0 c0 fc             	rol    $0xfc,%al
ffffffffffe073f3:	06                   	(bad)  
ffffffffffe073f4:	06                   	(bad)  
ffffffffffe073f5:	06                   	(bad)  
ffffffffffe073f6:	c6                   	(bad)  
ffffffffffe073f7:	7c 00                	jl     ffffffffffe073f9 <_binary_font_psf_start+0x37d>
ffffffffffe073f9:	00 00                	add    %al,(%rax)
ffffffffffe073fb:	00 00                	add    %al,(%rax)
ffffffffffe073fd:	00 38                	add    %bh,(%rax)
ffffffffffe073ff:	60                   	(bad)  
ffffffffffe07400:	c0 c0 fc             	rol    $0xfc,%al
ffffffffffe07403:	c6 c6 c6             	mov    $0xc6,%dh
ffffffffffe07406:	c6                   	(bad)  
ffffffffffe07407:	7c 00                	jl     ffffffffffe07409 <_binary_font_psf_start+0x38d>
ffffffffffe07409:	00 00                	add    %al,(%rax)
ffffffffffe0740b:	00 00                	add    %al,(%rax)
ffffffffffe0740d:	00 fe                	add    %bh,%dh
ffffffffffe0740f:	c6 06 06             	movb   $0x6,(%rsi)
ffffffffffe07412:	0c 18                	or     $0x18,%al
ffffffffffe07414:	30 30                	xor    %dh,(%rax)
ffffffffffe07416:	30 30                	xor    %dh,(%rax)
ffffffffffe07418:	00 00                	add    %al,(%rax)
ffffffffffe0741a:	00 00                	add    %al,(%rax)
ffffffffffe0741c:	00 00                	add    %al,(%rax)
ffffffffffe0741e:	7c c6                	jl     ffffffffffe073e6 <_binary_font_psf_start+0x36a>
ffffffffffe07420:	c6 c6 7c             	mov    $0x7c,%dh
ffffffffffe07423:	c6 c6 c6             	mov    $0xc6,%dh
ffffffffffe07426:	c6                   	(bad)  
ffffffffffe07427:	7c 00                	jl     ffffffffffe07429 <_binary_font_psf_start+0x3ad>
ffffffffffe07429:	00 00                	add    %al,(%rax)
ffffffffffe0742b:	00 00                	add    %al,(%rax)
ffffffffffe0742d:	00 7c c6 c6          	add    %bh,-0x3a(%rsi,%rax,8)
ffffffffffe07431:	c6                   	(bad)  
ffffffffffe07432:	7e 06                	jle    ffffffffffe0743a <_binary_font_psf_start+0x3be>
ffffffffffe07434:	06                   	(bad)  
ffffffffffe07435:	06                   	(bad)  
ffffffffffe07436:	0c 78                	or     $0x78,%al
	...
ffffffffffe07440:	18 18                	sbb    %bl,(%rax)
ffffffffffe07442:	00 00                	add    %al,(%rax)
ffffffffffe07444:	00 18                	add    %bl,(%rax)
ffffffffffe07446:	18 00                	sbb    %al,(%rax)
	...
ffffffffffe07450:	18 18                	sbb    %bl,(%rax)
ffffffffffe07452:	00 00                	add    %al,(%rax)
ffffffffffe07454:	00 18                	add    %bl,(%rax)
ffffffffffe07456:	18 30                	sbb    %dh,(%rax)
ffffffffffe07458:	00 00                	add    %al,(%rax)
ffffffffffe0745a:	00 00                	add    %al,(%rax)
ffffffffffe0745c:	00 00                	add    %al,(%rax)
ffffffffffe0745e:	00 06                	add    %al,(%rsi)
ffffffffffe07460:	0c 18                	or     $0x18,%al
ffffffffffe07462:	30 60 30             	xor    %ah,0x30(%rax)
ffffffffffe07465:	18 0c 06             	sbb    %cl,(%rsi,%rax,1)
	...
ffffffffffe07470:	00 7e 00             	add    %bh,0x0(%rsi)
ffffffffffe07473:	00 7e 00             	add    %bh,0x0(%rsi)
	...
ffffffffffe0747e:	00 60 30             	add    %ah,0x30(%rax)
ffffffffffe07481:	18 0c 06             	sbb    %cl,(%rsi,%rax,1)
ffffffffffe07484:	0c 18                	or     $0x18,%al
ffffffffffe07486:	30 60 00             	xor    %ah,0x0(%rax)
ffffffffffe07489:	00 00                	add    %al,(%rax)
ffffffffffe0748b:	00 00                	add    %al,(%rax)
ffffffffffe0748d:	00 7c c6 c6          	add    %bh,-0x3a(%rsi,%rax,8)
ffffffffffe07491:	0c 18                	or     $0x18,%al
ffffffffffe07493:	18 18                	sbb    %bl,(%rax)
ffffffffffe07495:	00 18                	add    %bl,(%rax)
ffffffffffe07497:	18 00                	sbb    %al,(%rax)
ffffffffffe07499:	00 00                	add    %al,(%rax)
ffffffffffe0749b:	00 00                	add    %al,(%rax)
ffffffffffe0749d:	00 00                	add    %al,(%rax)
ffffffffffe0749f:	7c c6                	jl     ffffffffffe07467 <_binary_font_psf_start+0x3eb>
ffffffffffe074a1:	c6                   	(bad)  
ffffffffffe074a2:	de de                	(bad)  
ffffffffffe074a4:	de dc                	(bad)  
ffffffffffe074a6:	c0 7c 00 00 00       	sarb   $0x0,0x0(%rax,%rax,1)
ffffffffffe074ab:	00 00                	add    %al,(%rax)
ffffffffffe074ad:	00 10                	add    %dl,(%rax)
ffffffffffe074af:	38 6c c6 c6          	cmp    %ch,-0x3a(%rsi,%rax,8)
ffffffffffe074b3:	fe c6                	inc    %dh
ffffffffffe074b5:	c6 c6 c6             	mov    $0xc6,%dh
ffffffffffe074b8:	00 00                	add    %al,(%rax)
ffffffffffe074ba:	00 00                	add    %al,(%rax)
ffffffffffe074bc:	00 00                	add    %al,(%rax)
ffffffffffe074be:	fc                   	cld    
ffffffffffe074bf:	66 66 66 7c 66       	data16 data16 data16 jl ffffffffffe0752a <_binary_font_psf_start+0x4ae>
ffffffffffe074c4:	66 66 66 fc          	data16 data16 data16 cld 
ffffffffffe074c8:	00 00                	add    %al,(%rax)
ffffffffffe074ca:	00 00                	add    %al,(%rax)
ffffffffffe074cc:	00 00                	add    %al,(%rax)
ffffffffffe074ce:	3c 66                	cmp    $0x66,%al
ffffffffffe074d0:	c2 c0 c0             	retq   $0xc0c0
ffffffffffe074d3:	c0 c0 c2             	rol    $0xc2,%al
ffffffffffe074d6:	66 3c 00             	data16 cmp $0x0,%al
ffffffffffe074d9:	00 00                	add    %al,(%rax)
ffffffffffe074db:	00 00                	add    %al,(%rax)
ffffffffffe074dd:	00 f8                	add    %bh,%al
ffffffffffe074df:	6c                   	insb   (%dx),%es:(%rdi)
ffffffffffe074e0:	66 66 66 66 66 66 6c 	data16 data16 data16 data16 data16 data16 insb (%dx),%es:(%rdi)
ffffffffffe074e7:	f8                   	clc    
ffffffffffe074e8:	00 00                	add    %al,(%rax)
ffffffffffe074ea:	00 00                	add    %al,(%rax)
ffffffffffe074ec:	00 00                	add    %al,(%rax)
ffffffffffe074ee:	fe                   	(bad)  
ffffffffffe074ef:	66 62                	data16 (bad) 
ffffffffffe074f1:	68 78 68 60 62       	pushq  $0x62606878
ffffffffffe074f6:	66 fe 00             	data16 incb (%rax)
ffffffffffe074f9:	00 00                	add    %al,(%rax)
ffffffffffe074fb:	00 00                	add    %al,(%rax)
ffffffffffe074fd:	00 fe                	add    %bh,%dh
ffffffffffe074ff:	66 62                	data16 (bad) 
ffffffffffe07501:	68 78 68 60 60       	pushq  $0x60606878
ffffffffffe07506:	60                   	(bad)  
ffffffffffe07507:	f0 00 00             	lock add %al,(%rax)
ffffffffffe0750a:	00 00                	add    %al,(%rax)
ffffffffffe0750c:	00 00                	add    %al,(%rax)
ffffffffffe0750e:	3c 66                	cmp    $0x66,%al
ffffffffffe07510:	c2 c0 c0             	retq   $0xc0c0
ffffffffffe07513:	de c6                	faddp  %st,%st(6)
ffffffffffe07515:	c6                   	(bad)  
ffffffffffe07516:	66 3a 00             	data16 cmp (%rax),%al
ffffffffffe07519:	00 00                	add    %al,(%rax)
ffffffffffe0751b:	00 00                	add    %al,(%rax)
ffffffffffe0751d:	00 c6                	add    %al,%dh
ffffffffffe0751f:	c6 c6 c6             	mov    $0xc6,%dh
ffffffffffe07522:	fe c6                	inc    %dh
ffffffffffe07524:	c6 c6 c6             	mov    $0xc6,%dh
ffffffffffe07527:	c6 00 00             	movb   $0x0,(%rax)
ffffffffffe0752a:	00 00                	add    %al,(%rax)
ffffffffffe0752c:	00 00                	add    %al,(%rax)
ffffffffffe0752e:	3c 18                	cmp    $0x18,%al
ffffffffffe07530:	18 18                	sbb    %bl,(%rax)
ffffffffffe07532:	18 18                	sbb    %bl,(%rax)
ffffffffffe07534:	18 18                	sbb    %bl,(%rax)
ffffffffffe07536:	18 3c 00             	sbb    %bh,(%rax,%rax,1)
ffffffffffe07539:	00 00                	add    %al,(%rax)
ffffffffffe0753b:	00 00                	add    %al,(%rax)
ffffffffffe0753d:	00 1e                	add    %bl,(%rsi)
ffffffffffe0753f:	0c 0c                	or     $0xc,%al
ffffffffffe07541:	0c 0c                	or     $0xc,%al
ffffffffffe07543:	0c cc                	or     $0xcc,%al
ffffffffffe07545:	cc                   	int3   
ffffffffffe07546:	cc                   	int3   
ffffffffffe07547:	78 00                	js     ffffffffffe07549 <_binary_font_psf_start+0x4cd>
ffffffffffe07549:	00 00                	add    %al,(%rax)
ffffffffffe0754b:	00 00                	add    %al,(%rax)
ffffffffffe0754d:	00 e6                	add    %ah,%dh
ffffffffffe0754f:	66 66 6c             	data16 data16 insb (%dx),%es:(%rdi)
ffffffffffe07552:	78 78                	js     ffffffffffe075cc <_binary_font_psf_start+0x550>
ffffffffffe07554:	6c                   	insb   (%dx),%es:(%rdi)
ffffffffffe07555:	66 66 e6 00          	data16 data16 out %al,$0x0
ffffffffffe07559:	00 00                	add    %al,(%rax)
ffffffffffe0755b:	00 00                	add    %al,(%rax)
ffffffffffe0755d:	00 f0                	add    %dh,%al
ffffffffffe0755f:	60                   	(bad)  
ffffffffffe07560:	60                   	(bad)  
ffffffffffe07561:	60                   	(bad)  
ffffffffffe07562:	60                   	(bad)  
ffffffffffe07563:	60                   	(bad)  
ffffffffffe07564:	60                   	(bad)  
ffffffffffe07565:	62                   	(bad)  
ffffffffffe07566:	66 fe 00             	data16 incb (%rax)
ffffffffffe07569:	00 00                	add    %al,(%rax)
ffffffffffe0756b:	00 00                	add    %al,(%rax)
ffffffffffe0756d:	00 c6                	add    %al,%dh
ffffffffffe0756f:	ee                   	out    %al,(%dx)
ffffffffffe07570:	fe                   	(bad)  
ffffffffffe07571:	fe                   	(bad)  
ffffffffffe07572:	d6                   	(bad)  
ffffffffffe07573:	c6 c6 c6             	mov    $0xc6,%dh
ffffffffffe07576:	c6 c6 00             	mov    $0x0,%dh
ffffffffffe07579:	00 00                	add    %al,(%rax)
ffffffffffe0757b:	00 00                	add    %al,(%rax)
ffffffffffe0757d:	00 c6                	add    %al,%dh
ffffffffffe0757f:	e6 f6                	out    %al,$0xf6
ffffffffffe07581:	fe                   	(bad)  
ffffffffffe07582:	de ce                	fmulp  %st,%st(6)
ffffffffffe07584:	c6 c6 c6             	mov    $0xc6,%dh
ffffffffffe07587:	c6 00 00             	movb   $0x0,(%rax)
ffffffffffe0758a:	00 00                	add    %al,(%rax)
ffffffffffe0758c:	00 00                	add    %al,(%rax)
ffffffffffe0758e:	7c c6                	jl     ffffffffffe07556 <_binary_font_psf_start+0x4da>
ffffffffffe07590:	c6 c6 c6             	mov    $0xc6,%dh
ffffffffffe07593:	c6 c6 c6             	mov    $0xc6,%dh
ffffffffffe07596:	c6                   	(bad)  
ffffffffffe07597:	7c 00                	jl     ffffffffffe07599 <_binary_font_psf_start+0x51d>
ffffffffffe07599:	00 00                	add    %al,(%rax)
ffffffffffe0759b:	00 00                	add    %al,(%rax)
ffffffffffe0759d:	00 fc                	add    %bh,%ah
ffffffffffe0759f:	66 66 66 7c 60       	data16 data16 data16 jl ffffffffffe07604 <_binary_font_psf_start+0x588>
ffffffffffe075a4:	60                   	(bad)  
ffffffffffe075a5:	60                   	(bad)  
ffffffffffe075a6:	60                   	(bad)  
ffffffffffe075a7:	f0 00 00             	lock add %al,(%rax)
ffffffffffe075aa:	00 00                	add    %al,(%rax)
ffffffffffe075ac:	00 00                	add    %al,(%rax)
ffffffffffe075ae:	7c c6                	jl     ffffffffffe07576 <_binary_font_psf_start+0x4fa>
ffffffffffe075b0:	c6 c6 c6             	mov    $0xc6,%dh
ffffffffffe075b3:	c6 c6 d6             	mov    $0xd6,%dh
ffffffffffe075b6:	de 7c 0c 0e          	fidivrs 0xe(%rsp,%rcx,1)
ffffffffffe075ba:	00 00                	add    %al,(%rax)
ffffffffffe075bc:	00 00                	add    %al,(%rax)
ffffffffffe075be:	fc                   	cld    
ffffffffffe075bf:	66 66 66 7c 6c       	data16 data16 data16 jl ffffffffffe07630 <_binary_font_psf_start+0x5b4>
ffffffffffe075c4:	66 66 66 e6 00       	data16 data16 data16 out %al,$0x0
ffffffffffe075c9:	00 00                	add    %al,(%rax)
ffffffffffe075cb:	00 00                	add    %al,(%rax)
ffffffffffe075cd:	00 7c c6 c6          	add    %bh,-0x3a(%rsi,%rax,8)
ffffffffffe075d1:	60                   	(bad)  
ffffffffffe075d2:	38 0c 06             	cmp    %cl,(%rsi,%rax,1)
ffffffffffe075d5:	c6 c6 7c             	mov    $0x7c,%dh
ffffffffffe075d8:	00 00                	add    %al,(%rax)
ffffffffffe075da:	00 00                	add    %al,(%rax)
ffffffffffe075dc:	00 00                	add    %al,(%rax)
ffffffffffe075de:	7e 7e                	jle    ffffffffffe0765e <_binary_font_psf_start+0x5e2>
ffffffffffe075e0:	5a                   	pop    %rdx
ffffffffffe075e1:	18 18                	sbb    %bl,(%rax)
ffffffffffe075e3:	18 18                	sbb    %bl,(%rax)
ffffffffffe075e5:	18 18                	sbb    %bl,(%rax)
ffffffffffe075e7:	3c 00                	cmp    $0x0,%al
ffffffffffe075e9:	00 00                	add    %al,(%rax)
ffffffffffe075eb:	00 00                	add    %al,(%rax)
ffffffffffe075ed:	00 c6                	add    %al,%dh
ffffffffffe075ef:	c6 c6 c6             	mov    $0xc6,%dh
ffffffffffe075f2:	c6 c6 c6             	mov    $0xc6,%dh
ffffffffffe075f5:	c6 c6 7c             	mov    $0x7c,%dh
ffffffffffe075f8:	00 00                	add    %al,(%rax)
ffffffffffe075fa:	00 00                	add    %al,(%rax)
ffffffffffe075fc:	00 00                	add    %al,(%rax)
ffffffffffe075fe:	c6 c6 c6             	mov    $0xc6,%dh
ffffffffffe07601:	c6 c6 c6             	mov    $0xc6,%dh
ffffffffffe07604:	c6                   	(bad)  
ffffffffffe07605:	6c                   	insb   (%dx),%es:(%rdi)
ffffffffffe07606:	38 10                	cmp    %dl,(%rax)
ffffffffffe07608:	00 00                	add    %al,(%rax)
ffffffffffe0760a:	00 00                	add    %al,(%rax)
ffffffffffe0760c:	00 00                	add    %al,(%rax)
ffffffffffe0760e:	c6 c6 c6             	mov    $0xc6,%dh
ffffffffffe07611:	c6                   	(bad)  
ffffffffffe07612:	d6                   	(bad)  
ffffffffffe07613:	d6                   	(bad)  
ffffffffffe07614:	d6                   	(bad)  
ffffffffffe07615:	fe                   	(bad)  
ffffffffffe07616:	ee                   	out    %al,(%dx)
ffffffffffe07617:	6c                   	insb   (%dx),%es:(%rdi)
ffffffffffe07618:	00 00                	add    %al,(%rax)
ffffffffffe0761a:	00 00                	add    %al,(%rax)
ffffffffffe0761c:	00 00                	add    %al,(%rax)
ffffffffffe0761e:	c6 c6 6c             	mov    $0x6c,%dh
ffffffffffe07621:	7c 38                	jl     ffffffffffe0765b <_binary_font_psf_start+0x5df>
ffffffffffe07623:	38 7c 6c c6          	cmp    %bh,-0x3a(%rsp,%rbp,2)
ffffffffffe07627:	c6 00 00             	movb   $0x0,(%rax)
ffffffffffe0762a:	00 00                	add    %al,(%rax)
ffffffffffe0762c:	00 00                	add    %al,(%rax)
ffffffffffe0762e:	66 66 66 66 3c 18    	data16 data16 data16 data16 cmp $0x18,%al
ffffffffffe07634:	18 18                	sbb    %bl,(%rax)
ffffffffffe07636:	18 3c 00             	sbb    %bh,(%rax,%rax,1)
ffffffffffe07639:	00 00                	add    %al,(%rax)
ffffffffffe0763b:	00 00                	add    %al,(%rax)
ffffffffffe0763d:	00 fe                	add    %bh,%dh
ffffffffffe0763f:	c6 86 0c 18 30 60 c2 	movb   $0xc2,0x6030180c(%rsi)
ffffffffffe07646:	c6                   	(bad)  
ffffffffffe07647:	fe 00                	incb   (%rax)
ffffffffffe07649:	00 00                	add    %al,(%rax)
ffffffffffe0764b:	00 00                	add    %al,(%rax)
ffffffffffe0764d:	00 3c 30             	add    %bh,(%rax,%rsi,1)
ffffffffffe07650:	30 30                	xor    %dh,(%rax)
ffffffffffe07652:	30 30                	xor    %dh,(%rax)
ffffffffffe07654:	30 30                	xor    %dh,(%rax)
ffffffffffe07656:	30 3c 00             	xor    %bh,(%rax,%rax,1)
ffffffffffe07659:	00 00                	add    %al,(%rax)
ffffffffffe0765b:	00 00                	add    %al,(%rax)
ffffffffffe0765d:	00 00                	add    %al,(%rax)
ffffffffffe0765f:	80 c0 e0             	add    $0xe0,%al
ffffffffffe07662:	70 38                	jo     ffffffffffe0769c <_binary_font_psf_start+0x620>
ffffffffffe07664:	1c 0e                	sbb    $0xe,%al
ffffffffffe07666:	06                   	(bad)  
ffffffffffe07667:	02 00                	add    (%rax),%al
ffffffffffe07669:	00 00                	add    %al,(%rax)
ffffffffffe0766b:	00 00                	add    %al,(%rax)
ffffffffffe0766d:	00 3c 0c             	add    %bh,(%rsp,%rcx,1)
ffffffffffe07670:	0c 0c                	or     $0xc,%al
ffffffffffe07672:	0c 0c                	or     $0xc,%al
ffffffffffe07674:	0c 0c                	or     $0xc,%al
ffffffffffe07676:	0c 3c                	or     $0x3c,%al
ffffffffffe07678:	00 00                	add    %al,(%rax)
ffffffffffe0767a:	00 00                	add    %al,(%rax)
ffffffffffe0767c:	10 38                	adc    %bh,(%rax)
ffffffffffe0767e:	6c                   	insb   (%dx),%es:(%rdi)
ffffffffffe0767f:	c6 00 00             	movb   $0x0,(%rax)
	...
ffffffffffe07696:	00 00                	add    %al,(%rax)
ffffffffffe07698:	00 ff                	add    %bh,%bh
ffffffffffe0769a:	00 00                	add    %al,(%rax)
ffffffffffe0769c:	30 30                	xor    %dh,(%rax)
ffffffffffe0769e:	18 00                	sbb    %al,(%rax)
	...
ffffffffffe076b0:	00 78 0c             	add    %bh,0xc(%rax)
ffffffffffe076b3:	7c cc                	jl     ffffffffffe07681 <_binary_font_psf_start+0x605>
ffffffffffe076b5:	cc                   	int3   
ffffffffffe076b6:	cc                   	int3   
ffffffffffe076b7:	76 00                	jbe    ffffffffffe076b9 <_binary_font_psf_start+0x63d>
ffffffffffe076b9:	00 00                	add    %al,(%rax)
ffffffffffe076bb:	00 00                	add    %al,(%rax)
ffffffffffe076bd:	00 e0                	add    %ah,%al
ffffffffffe076bf:	60                   	(bad)  
ffffffffffe076c0:	60                   	(bad)  
ffffffffffe076c1:	78 6c                	js     ffffffffffe0772f <_binary_font_psf_start+0x6b3>
ffffffffffe076c3:	66 66 66 66 7c 00    	data16 data16 data16 data16 jl ffffffffffe076c9 <_binary_font_psf_start+0x64d>
	...
ffffffffffe076d1:	7c c6                	jl     ffffffffffe07699 <_binary_font_psf_start+0x61d>
ffffffffffe076d3:	c0 c0 c0             	rol    $0xc0,%al
ffffffffffe076d6:	c6                   	(bad)  
ffffffffffe076d7:	7c 00                	jl     ffffffffffe076d9 <_binary_font_psf_start+0x65d>
ffffffffffe076d9:	00 00                	add    %al,(%rax)
ffffffffffe076db:	00 00                	add    %al,(%rax)
ffffffffffe076dd:	00 1c 0c             	add    %bl,(%rsp,%rcx,1)
ffffffffffe076e0:	0c 3c                	or     $0x3c,%al
ffffffffffe076e2:	6c                   	insb   (%dx),%es:(%rdi)
ffffffffffe076e3:	cc                   	int3   
ffffffffffe076e4:	cc                   	int3   
ffffffffffe076e5:	cc                   	int3   
ffffffffffe076e6:	cc                   	int3   
ffffffffffe076e7:	76 00                	jbe    ffffffffffe076e9 <_binary_font_psf_start+0x66d>
	...
ffffffffffe076f1:	7c c6                	jl     ffffffffffe076b9 <_binary_font_psf_start+0x63d>
ffffffffffe076f3:	fe c0                	inc    %al
ffffffffffe076f5:	c0 c6 7c             	rol    $0x7c,%dh
ffffffffffe076f8:	00 00                	add    %al,(%rax)
ffffffffffe076fa:	00 00                	add    %al,(%rax)
ffffffffffe076fc:	00 00                	add    %al,(%rax)
ffffffffffe076fe:	38 6c 64 60          	cmp    %ch,0x60(%rsp,%riz,2)
ffffffffffe07702:	f0 60                	lock (bad) 
ffffffffffe07704:	60                   	(bad)  
ffffffffffe07705:	60                   	(bad)  
ffffffffffe07706:	60                   	(bad)  
ffffffffffe07707:	f0 00 00             	lock add %al,(%rax)
ffffffffffe0770a:	00 00                	add    %al,(%rax)
ffffffffffe0770c:	00 00                	add    %al,(%rax)
ffffffffffe0770e:	00 00                	add    %al,(%rax)
ffffffffffe07710:	00 76 cc             	add    %dh,-0x34(%rsi)
ffffffffffe07713:	cc                   	int3   
ffffffffffe07714:	cc                   	int3   
ffffffffffe07715:	cc                   	int3   
ffffffffffe07716:	cc                   	int3   
ffffffffffe07717:	7c 0c                	jl     ffffffffffe07725 <_binary_font_psf_start+0x6a9>
ffffffffffe07719:	cc                   	int3   
ffffffffffe0771a:	78 00                	js     ffffffffffe0771c <_binary_font_psf_start+0x6a0>
ffffffffffe0771c:	00 00                	add    %al,(%rax)
ffffffffffe0771e:	e0 60                	loopne ffffffffffe07780 <_binary_font_psf_start+0x704>
ffffffffffe07720:	60                   	(bad)  
ffffffffffe07721:	6c                   	insb   (%dx),%es:(%rdi)
ffffffffffe07722:	76 66                	jbe    ffffffffffe0778a <_binary_font_psf_start+0x70e>
ffffffffffe07724:	66 66 66 e6 00       	data16 data16 data16 out %al,$0x0
ffffffffffe07729:	00 00                	add    %al,(%rax)
ffffffffffe0772b:	00 00                	add    %al,(%rax)
ffffffffffe0772d:	00 18                	add    %bl,(%rax)
ffffffffffe0772f:	18 00                	sbb    %al,(%rax)
ffffffffffe07731:	38 18                	cmp    %bl,(%rax)
ffffffffffe07733:	18 18                	sbb    %bl,(%rax)
ffffffffffe07735:	18 18                	sbb    %bl,(%rax)
ffffffffffe07737:	3c 00                	cmp    $0x0,%al
ffffffffffe07739:	00 00                	add    %al,(%rax)
ffffffffffe0773b:	00 00                	add    %al,(%rax)
ffffffffffe0773d:	00 06                	add    %al,(%rsi)
ffffffffffe0773f:	06                   	(bad)  
ffffffffffe07740:	00 0e                	add    %cl,(%rsi)
ffffffffffe07742:	06                   	(bad)  
ffffffffffe07743:	06                   	(bad)  
ffffffffffe07744:	06                   	(bad)  
ffffffffffe07745:	06                   	(bad)  
ffffffffffe07746:	06                   	(bad)  
ffffffffffe07747:	06                   	(bad)  
ffffffffffe07748:	66 66 3c 00          	data16 data16 cmp $0x0,%al
ffffffffffe0774c:	00 00                	add    %al,(%rax)
ffffffffffe0774e:	e0 60                	loopne ffffffffffe077b0 <_binary_font_psf_start+0x734>
ffffffffffe07750:	60                   	(bad)  
ffffffffffe07751:	66 6c                	data16 insb (%dx),%es:(%rdi)
ffffffffffe07753:	78 78                	js     ffffffffffe077cd <_binary_font_psf_start+0x751>
ffffffffffe07755:	6c                   	insb   (%dx),%es:(%rdi)
ffffffffffe07756:	66 e6 00             	data16 out %al,$0x0
ffffffffffe07759:	00 00                	add    %al,(%rax)
ffffffffffe0775b:	00 00                	add    %al,(%rax)
ffffffffffe0775d:	00 38                	add    %bh,(%rax)
ffffffffffe0775f:	18 18                	sbb    %bl,(%rax)
ffffffffffe07761:	18 18                	sbb    %bl,(%rax)
ffffffffffe07763:	18 18                	sbb    %bl,(%rax)
ffffffffffe07765:	18 18                	sbb    %bl,(%rax)
ffffffffffe07767:	3c 00                	cmp    $0x0,%al
	...
ffffffffffe07771:	ec                   	in     (%dx),%al
ffffffffffe07772:	fe                   	(bad)  
ffffffffffe07773:	d6                   	(bad)  
ffffffffffe07774:	d6                   	(bad)  
ffffffffffe07775:	d6                   	(bad)  
ffffffffffe07776:	d6                   	(bad)  
ffffffffffe07777:	c6 00 00             	movb   $0x0,(%rax)
ffffffffffe0777a:	00 00                	add    %al,(%rax)
ffffffffffe0777c:	00 00                	add    %al,(%rax)
ffffffffffe0777e:	00 00                	add    %al,(%rax)
ffffffffffe07780:	00 dc                	add    %bl,%ah
ffffffffffe07782:	66 66 66 66 66 66 00 	data16 data16 data16 data16 data16 data16 add %al,(%rax)
ffffffffffe07789:	00 
ffffffffffe0778a:	00 00                	add    %al,(%rax)
ffffffffffe0778c:	00 00                	add    %al,(%rax)
ffffffffffe0778e:	00 00                	add    %al,(%rax)
ffffffffffe07790:	00 7c c6 c6          	add    %bh,-0x3a(%rsi,%rax,8)
ffffffffffe07794:	c6 c6 c6             	mov    $0xc6,%dh
ffffffffffe07797:	7c 00                	jl     ffffffffffe07799 <_binary_font_psf_start+0x71d>
	...
ffffffffffe077a1:	dc 66 66             	fsubl  0x66(%rsi)
ffffffffffe077a4:	66 66 66 7c 60       	data16 data16 data16 jl ffffffffffe07809 <_binary_font_psf_start+0x78d>
ffffffffffe077a9:	60                   	(bad)  
ffffffffffe077aa:	f0 00 00             	lock add %al,(%rax)
ffffffffffe077ad:	00 00                	add    %al,(%rax)
ffffffffffe077af:	00 00                	add    %al,(%rax)
ffffffffffe077b1:	76 cc                	jbe    ffffffffffe0777f <_binary_font_psf_start+0x703>
ffffffffffe077b3:	cc                   	int3   
ffffffffffe077b4:	cc                   	int3   
ffffffffffe077b5:	cc                   	int3   
ffffffffffe077b6:	cc                   	int3   
ffffffffffe077b7:	7c 0c                	jl     ffffffffffe077c5 <_binary_font_psf_start+0x749>
ffffffffffe077b9:	0c 1e                	or     $0x1e,%al
ffffffffffe077bb:	00 00                	add    %al,(%rax)
ffffffffffe077bd:	00 00                	add    %al,(%rax)
ffffffffffe077bf:	00 00                	add    %al,(%rax)
ffffffffffe077c1:	dc 76 66             	fdivl  0x66(%rsi)
ffffffffffe077c4:	60                   	(bad)  
ffffffffffe077c5:	60                   	(bad)  
ffffffffffe077c6:	60                   	(bad)  
ffffffffffe077c7:	f0 00 00             	lock add %al,(%rax)
ffffffffffe077ca:	00 00                	add    %al,(%rax)
ffffffffffe077cc:	00 00                	add    %al,(%rax)
ffffffffffe077ce:	00 00                	add    %al,(%rax)
ffffffffffe077d0:	00 7c c6 60          	add    %bh,0x60(%rsi,%rax,8)
ffffffffffe077d4:	38 0c c6             	cmp    %cl,(%rsi,%rax,8)
ffffffffffe077d7:	7c 00                	jl     ffffffffffe077d9 <_binary_font_psf_start+0x75d>
ffffffffffe077d9:	00 00                	add    %al,(%rax)
ffffffffffe077db:	00 00                	add    %al,(%rax)
ffffffffffe077dd:	00 10                	add    %dl,(%rax)
ffffffffffe077df:	30 30                	xor    %dh,(%rax)
ffffffffffe077e1:	fc                   	cld    
ffffffffffe077e2:	30 30                	xor    %dh,(%rax)
ffffffffffe077e4:	30 30                	xor    %dh,(%rax)
ffffffffffe077e6:	36 1c 00             	ss sbb $0x0,%al
	...
ffffffffffe077f1:	cc                   	int3   
ffffffffffe077f2:	cc                   	int3   
ffffffffffe077f3:	cc                   	int3   
ffffffffffe077f4:	cc                   	int3   
ffffffffffe077f5:	cc                   	int3   
ffffffffffe077f6:	cc                   	int3   
ffffffffffe077f7:	76 00                	jbe    ffffffffffe077f9 <_binary_font_psf_start+0x77d>
	...
ffffffffffe07801:	66 66 66 66 66 3c 18 	data16 data16 data16 data16 data16 cmp $0x18,%al
	...
ffffffffffe07810:	00 c6                	add    %al,%dh
ffffffffffe07812:	c6                   	(bad)  
ffffffffffe07813:	d6                   	(bad)  
ffffffffffe07814:	d6                   	(bad)  
ffffffffffe07815:	d6                   	(bad)  
ffffffffffe07816:	fe                   	(bad)  
ffffffffffe07817:	6c                   	insb   (%dx),%es:(%rdi)
	...
ffffffffffe07820:	00 c6                	add    %al,%dh
ffffffffffe07822:	6c                   	insb   (%dx),%es:(%rdi)
ffffffffffe07823:	38 38                	cmp    %bh,(%rax)
ffffffffffe07825:	38 6c c6 00          	cmp    %ch,0x0(%rsi,%rax,8)
	...
ffffffffffe07831:	c6 c6 c6             	mov    $0xc6,%dh
ffffffffffe07834:	c6 c6 c6             	mov    $0xc6,%dh
ffffffffffe07837:	7e 06                	jle    ffffffffffe0783f <_binary_font_psf_start+0x7c3>
ffffffffffe07839:	0c f8                	or     $0xf8,%al
ffffffffffe0783b:	00 00                	add    %al,(%rax)
ffffffffffe0783d:	00 00                	add    %al,(%rax)
ffffffffffe0783f:	00 00                	add    %al,(%rax)
ffffffffffe07841:	fe cc                	dec    %ah
ffffffffffe07843:	18 30                	sbb    %dh,(%rax)
ffffffffffe07845:	60                   	(bad)  
ffffffffffe07846:	c6                   	(bad)  
ffffffffffe07847:	fe 00                	incb   (%rax)
ffffffffffe07849:	00 00                	add    %al,(%rax)
ffffffffffe0784b:	00 00                	add    %al,(%rax)
ffffffffffe0784d:	00 0e                	add    %cl,(%rsi)
ffffffffffe0784f:	18 18                	sbb    %bl,(%rax)
ffffffffffe07851:	18 70 18             	sbb    %dh,0x18(%rax)
ffffffffffe07854:	18 18                	sbb    %bl,(%rax)
ffffffffffe07856:	18 0e                	sbb    %cl,(%rsi)
ffffffffffe07858:	00 00                	add    %al,(%rax)
ffffffffffe0785a:	00 00                	add    %al,(%rax)
ffffffffffe0785c:	00 00                	add    %al,(%rax)
ffffffffffe0785e:	18 18                	sbb    %bl,(%rax)
ffffffffffe07860:	18 18                	sbb    %bl,(%rax)
ffffffffffe07862:	18 18                	sbb    %bl,(%rax)
ffffffffffe07864:	18 18                	sbb    %bl,(%rax)
ffffffffffe07866:	18 18                	sbb    %bl,(%rax)
ffffffffffe07868:	18 18                	sbb    %bl,(%rax)
ffffffffffe0786a:	00 00                	add    %al,(%rax)
ffffffffffe0786c:	00 00                	add    %al,(%rax)
ffffffffffe0786e:	70 18                	jo     ffffffffffe07888 <_binary_font_psf_start+0x80c>
ffffffffffe07870:	18 18                	sbb    %bl,(%rax)
ffffffffffe07872:	0e                   	(bad)  
ffffffffffe07873:	18 18                	sbb    %bl,(%rax)
ffffffffffe07875:	18 18                	sbb    %bl,(%rax)
ffffffffffe07877:	70 00                	jo     ffffffffffe07879 <_binary_font_psf_start+0x7fd>
ffffffffffe07879:	00 00                	add    %al,(%rax)
ffffffffffe0787b:	00 00                	add    %al,(%rax)
ffffffffffe0787d:	00 76 dc             	add    %dh,-0x24(%rsi)
	...
ffffffffffe07890:	10 38                	adc    %bh,(%rax)
ffffffffffe07892:	6c                   	insb   (%dx),%es:(%rdi)
ffffffffffe07893:	c6 c6 c6             	mov    $0xc6,%dh
ffffffffffe07896:	fe 00                	incb   (%rax)
ffffffffffe07898:	00 00                	add    %al,(%rax)
	...

ffffffffffe0789c <_binary_font_psf_end>:
ffffffffffe0789c:	0f 1f 40 00          	nopl   0x0(%rax)

ffffffffffe078a0 <page_stack>:
ffffffffffe078a0:	ff ff ff ff ff ff ff ff                             ........

ffffffffffe078a8 <pid_counter>:
ffffffffffe078a8:	01 00 00 00 00 00 00 00                             ........
